---
triple:          'arm64-apple-darwin'
binary-path:     'build/debug/output'
relocations:
  - { offsetInCU: 0x4AEF, offset: 0x4AEF, size: 0x8, addend: 0x0, symName: __ZNSt3__124__put_character_sequenceB7v160006IcNS_11char_traitsIcEEEERNS_13basic_ostreamIT_T0_EES7_PKS4_m, symObjAddr: 0x3BE8, symBinAddr: 0x1000051B0, symSize: 0x1EC }
  - { offsetInCU: 0x6639, offset: 0x6639, size: 0x8, addend: 0x0, symName: __ZNSt3__1eqB7v160006IPP4nodeEEbRKNS_11__wrap_iterIT_EES8_, symObjAddr: 0x6A0, symBinAddr: 0x100001C68, symSize: 0x48 }
  - { offsetInCU: 0x667C, offset: 0x667C, size: 0x8, addend: 0x0, symName: __ZNSt3__14findB7v160006INS_11__wrap_iterIPP4nodeEES3_EET_S6_S6_RKT0_, symObjAddr: 0x6E8, symBinAddr: 0x100001CB0, symSize: 0x80 }
  - { offsetInCU: 0x66D6, offset: 0x66D6, size: 0x8, addend: 0x0, symName: __ZNSt3__1lsB7v160006INS_11char_traitsIcEEEERNS_13basic_ostreamIcT_EES6_PKc, symObjAddr: 0x10B8, symBinAddr: 0x100002680, symSize: 0x48 }
  - { offsetInCU: 0x671C, offset: 0x671C, size: 0x8, addend: 0x0, symName: __ZNSt3__122__make_exception_guardB7v160006INS_6vectorIP4nodeNS_9allocatorIS3_EEE16__destroy_vectorEEENS_28__exception_guard_exceptionsIT_EES9_, symObjAddr: 0x1528, symBinAddr: 0x100002AF0, symSize: 0x40 }
  - { offsetInCU: 0x6751, offset: 0x6751, size: 0x8, addend: 0x0, symName: __ZNSt3__119__debug_db_insert_cB7v160006INS_6vectorIP4nodeNS_9allocatorIS3_EEEEEEvPT_, symObjAddr: 0x159C, symBinAddr: 0x100002B64, symSize: 0x10 }
  - { offsetInCU: 0x6782, offset: 0x6782, size: 0x8, addend: 0x0, symName: __ZNSt3__119__allocate_at_leastB7v160006INS_9allocatorIP4nodeEEEENS_19__allocation_resultINS_16allocator_traitsIT_E7pointerEEERS7_m, symObjAddr: 0x1938, symBinAddr: 0x100002F00, symSize: 0x40 }
  - { offsetInCU: 0x67C5, offset: 0x67C5, size: 0x8, addend: 0x0, symName: __ZNSt3__13minB7v160006ImEERKT_S3_S3_, symObjAddr: 0x1A74, symBinAddr: 0x10000303C, symSize: 0x2C }
  - { offsetInCU: 0x6A09, offset: 0x6A09, size: 0x8, addend: 0x0, symName: __ZNSt3__13minB7v160006ImNS_6__lessImmEEEERKT_S5_S5_T0_, symObjAddr: 0x1B00, symBinAddr: 0x1000030C8, symSize: 0x54 }
  - { offsetInCU: 0x6A9E, offset: 0x6A9E, size: 0x8, addend: 0x0, symName: __ZNSt3__120__throw_length_errorB7v160006EPKc, symObjAddr: 0x1BDC, symBinAddr: 0x1000031A4, symSize: 0x64 }
  - { offsetInCU: 0x6AC6, offset: 0x6AC6, size: 0x8, addend: 0x0, symName: __ZNSt3__117__libcpp_allocateB7v160006Emm, symObjAddr: 0x1D4C, symBinAddr: 0x100003314, symSize: 0x28 }
  - { offsetInCU: 0x6B03, offset: 0x6B03, size: 0x8, addend: 0x0, symName: __ZNSt3__121__libcpp_operator_newB7v160006IJmEEEPvDpT_, symObjAddr: 0x1D74, symBinAddr: 0x10000333C, symSize: 0x24 }
  - { offsetInCU: 0x6B3C, offset: 0x6B3C, size: 0x8, addend: 0x0, symName: __ZNSt3__112__to_addressB7v160006IP4nodeEEPT_S4_, symObjAddr: 0x1E90, symBinAddr: 0x100003458, symSize: 0x14 }
  - { offsetInCU: 0x6B71, offset: 0x6B71, size: 0x8, addend: 0x0, symName: __ZNSt3__130__uninitialized_allocator_copyB7v160006INS_9allocatorIP4nodeEES3_S3_LPv0EEEPT0_RT_PKS6_SB_S7_, symObjAddr: 0x1F40, symBinAddr: 0x100003508, symSize: 0x38 }
  - { offsetInCU: 0x6BE9, offset: 0x6BE9, size: 0x8, addend: 0x0, symName: __ZNSt3__14copyB7v160006IPKP4nodePS2_EET0_T_S7_S6_, symObjAddr: 0x1FE8, symBinAddr: 0x1000035B0, symSize: 0x40 }
  - { offsetInCU: 0x6C43, offset: 0x6C43, size: 0x8, addend: 0x0, symName: __ZNSt3__16__copyB7v160006INS_17_ClassicAlgPolicyEPKP4nodeS5_PS3_EENS_4pairIT0_T2_EES8_T1_S9_, symObjAddr: 0x2028, symBinAddr: 0x1000035F0, symSize: 0x44 }
  - { offsetInCU: 0x6CAF, offset: 0x6CAF, size: 0x8, addend: 0x0, symName: __ZNSt3__123__dispatch_copy_or_moveB7v160006INS_17_ClassicAlgPolicyENS_11__copy_loopIS1_EENS_14__copy_trivialEPKP4nodeS8_PS6_EENS_4pairIT2_T4_EESB_T3_SC_, symObjAddr: 0x206C, symBinAddr: 0x100003634, symSize: 0x44 }
  - { offsetInCU: 0x6D2D, offset: 0x6D2D, size: 0x8, addend: 0x0, symName: __ZNSt3__121__unwrap_and_dispatchB7v160006INS_10__overloadINS_11__copy_loopINS_17_ClassicAlgPolicyEEENS_14__copy_trivialEEEPKP4nodeSA_PS8_Li0EEENS_4pairIT0_T2_EESD_T1_SE_, symObjAddr: 0x20B0, symBinAddr: 0x100003678, symSize: 0xB4 }
  - { offsetInCU: 0x6DBB, offset: 0x6DBB, size: 0x8, addend: 0x0, symName: __ZNSt3__114__unwrap_rangeB7v160006IPKP4nodeS4_EENS_4pairIT0_S6_EET_S8_, symObjAddr: 0x2164, symBinAddr: 0x10000372C, symSize: 0x60 }
  - { offsetInCU: 0x6F50, offset: 0x6F50, size: 0x8, addend: 0x0, symName: __ZNSt3__113__unwrap_iterB7v160006IPP4nodeNS_18__unwrap_iter_implIS3_Lb1EEELi0EEEDTclsrT0_8__unwrapclsr3stdE7declvalIT_EEEES7_, symObjAddr: 0x220C, symBinAddr: 0x1000037D4, symSize: 0x24 }
  - { offsetInCU: 0x6F94, offset: 0x6F94, size: 0x8, addend: 0x0, symName: __ZNSt3__19make_pairB7v160006IPKP4nodePS2_EENS_4pairINS_18__unwrap_ref_decayIT_E4typeENS7_IT0_E4typeEEEOS8_OSB_, symObjAddr: 0x2230, symBinAddr: 0x1000037F8, symSize: 0x38 }
  - { offsetInCU: 0x6FE3, offset: 0x6FE3, size: 0x8, addend: 0x0, symName: __ZNSt3__114__rewrap_rangeB7v160006IPKP4nodeS4_EET_S5_T0_, symObjAddr: 0x2268, symBinAddr: 0x100003830, symSize: 0x2C }
  - { offsetInCU: 0x702F, offset: 0x702F, size: 0x8, addend: 0x0, symName: __ZNSt3__113__rewrap_iterB7v160006IPP4nodeS3_NS_18__unwrap_iter_implIS3_Lb1EEEEET_S6_T0_, symObjAddr: 0x2294, symBinAddr: 0x10000385C, symSize: 0x3C }
  - { offsetInCU: 0x7084, offset: 0x7084, size: 0x8, addend: 0x0, symName: __ZNSt3__19make_pairB7v160006IPKP4nodeS4_EENS_4pairINS_18__unwrap_ref_decayIT_E4typeENS6_IT0_E4typeEEEOS7_OSA_, symObjAddr: 0x22D0, symBinAddr: 0x100003898, symSize: 0x38 }
  - { offsetInCU: 0x70D3, offset: 0x70D3, size: 0x8, addend: 0x0, symName: __ZNSt3__113__unwrap_iterB7v160006IPKP4nodeNS_18__unwrap_iter_implIS4_Lb1EEELi0EEEDTclsrT0_8__unwrapclsr3stdE7declvalIT_EEEES8_, symObjAddr: 0x2308, symBinAddr: 0x1000038D0, symSize: 0x24 }
  - { offsetInCU: 0x723E, offset: 0x723E, size: 0x8, addend: 0x0, symName: __ZNSt3__112__to_addressB7v160006IKP4nodeEEPT_S5_, symObjAddr: 0x23C0, symBinAddr: 0x100003988, symSize: 0x14 }
  - { offsetInCU: 0x7273, offset: 0x7273, size: 0x8, addend: 0x0, symName: __ZNSt3__119__copy_trivial_implB7v160006IKP4nodeS2_EENS_4pairIPT_PT0_EES6_S6_S8_, symObjAddr: 0x23D4, symBinAddr: 0x10000399C, symSize: 0x84 }
  - { offsetInCU: 0x72DB, offset: 0x72DB, size: 0x8, addend: 0x0, symName: __ZNSt3__19make_pairB7v160006IRPKP4nodePS2_EENS_4pairINS_18__unwrap_ref_decayIT_E4typeENS8_IT0_E4typeEEEOS9_OSC_, symObjAddr: 0x2458, symBinAddr: 0x100003A20, symSize: 0x38 }
  - { offsetInCU: 0x737D, offset: 0x737D, size: 0x8, addend: 0x0, symName: __ZNSt3__113__rewrap_iterB7v160006IPKP4nodeS4_NS_18__unwrap_iter_implIS4_Lb1EEEEET_S7_T0_, symObjAddr: 0x2594, symBinAddr: 0x100003B5C, symSize: 0x3C }
  - { offsetInCU: 0x73D2, offset: 0x73D2, size: 0x8, addend: 0x0, symName: __ZNSt3__118__debug_db_erase_cB7v160006INS_6vectorIP4nodeNS_9allocatorIS3_EEEEEEvPT_, symObjAddr: 0x2834, symBinAddr: 0x100003DFC, symSize: 0x10 }
  - { offsetInCU: 0x7403, offset: 0x7403, size: 0x8, addend: 0x0, symName: __ZNSt3__119__libcpp_deallocateB7v160006EPvmm, symObjAddr: 0x29AC, symBinAddr: 0x100003F74, symSize: 0x30 }
  - { offsetInCU: 0x744B, offset: 0x744B, size: 0x8, addend: 0x0, symName: __ZNSt3__127__do_deallocate_handle_sizeB7v160006IJEEEvPvmDpT_, symObjAddr: 0x29DC, symBinAddr: 0x100003FA4, symSize: 0x28 }
  - { offsetInCU: 0x7489, offset: 0x7489, size: 0x8, addend: 0x0, symName: __ZNSt3__124__libcpp_operator_deleteB7v160006IJPvEEEvDpT_, symObjAddr: 0x2A04, symBinAddr: 0x100003FCC, symSize: 0x24 }
  - { offsetInCU: 0x74BE, offset: 0x74BE, size: 0x8, addend: 0x0, symName: __ZNSt3__13maxB7v160006ImEERKT_S3_S3_, symObjAddr: 0x2EC0, symBinAddr: 0x100004488, symSize: 0x2C }
  - { offsetInCU: 0x7501, offset: 0x7501, size: 0x8, addend: 0x0, symName: __ZNSt3__13maxB7v160006ImNS_6__lessImmEEEERKT_S5_S5_T0_, symObjAddr: 0x2EEC, symBinAddr: 0x1000044B4, symSize: 0x54 }
  - { offsetInCU: 0x755B, offset: 0x755B, size: 0x8, addend: 0x0, symName: __ZNSt3__142__uninitialized_allocator_move_if_noexceptB7v160006INS_9allocatorIP4nodeEENS_16reverse_iteratorIPS3_EES7_S3_vEET1_RT_T0_SB_S8_, symObjAddr: 0x316C, symBinAddr: 0x100004734, symSize: 0x78 }
  - { offsetInCU: 0x75D8, offset: 0x75D8, size: 0x8, addend: 0x0, symName: __ZNSt3__14swapB7v160006IPP4nodeEENS_9enable_ifIXaasr21is_move_constructibleIT_EE5valuesr18is_move_assignableIS5_EE5valueEvE4typeERS5_S8_, symObjAddr: 0x3230, symBinAddr: 0x1000047F8, symSize: 0x3C }
  - { offsetInCU: 0x7629, offset: 0x7629, size: 0x8, addend: 0x0, symName: __ZNSt3__125__debug_db_invalidate_allB7v160006INS_6vectorIP4nodeNS_9allocatorIS3_EEEEEEvPT_, symObjAddr: 0x326C, symBinAddr: 0x100004834, symSize: 0x10 }
  - { offsetInCU: 0x765A, offset: 0x765A, size: 0x8, addend: 0x0, symName: __ZNSt3__14moveB7v160006INS_16reverse_iteratorIPP4nodeEES5_EET0_T_S7_S6_, symObjAddr: 0x327C, symBinAddr: 0x100004844, symSize: 0x78 }
  - { offsetInCU: 0x76B4, offset: 0x76B4, size: 0x8, addend: 0x0, symName: __ZNSt3__16__moveB7v160006INS_17_ClassicAlgPolicyENS_16reverse_iteratorIPP4nodeEES6_S6_EENS_4pairIT0_T2_EES8_T1_S9_, symObjAddr: 0x32F4, symBinAddr: 0x1000048BC, symSize: 0x64 }
  - { offsetInCU: 0x7720, offset: 0x7720, size: 0x8, addend: 0x0, symName: __ZNSt3__123__dispatch_copy_or_moveB7v160006INS_17_ClassicAlgPolicyENS_11__move_loopIS1_EENS_14__move_trivialENS_16reverse_iteratorIPP4nodeEES9_S9_EENS_4pairIT2_T4_EESB_T3_SC_, symObjAddr: 0x3358, symBinAddr: 0x100004920, symSize: 0x64 }
  - { offsetInCU: 0x779E, offset: 0x779E, size: 0x8, addend: 0x0, symName: __ZNSt3__121__unwrap_and_dispatchB7v160006INS_10__overloadINS_11__move_loopINS_17_ClassicAlgPolicyEEENS_14__move_trivialEEENS_16reverse_iteratorIPP4nodeEESB_SB_Li0EEENS_4pairIT0_T2_EESD_T1_SE_, symObjAddr: 0x33BC, symBinAddr: 0x100004984, symSize: 0x12C }
  - { offsetInCU: 0x782E, offset: 0x782E, size: 0x8, addend: 0x0, symName: __ZNSt3__114__unwrap_rangeB7v160006INS_16reverse_iteratorIPP4nodeEES5_EENS_4pairIT0_S7_EET_S9_, symObjAddr: 0x34E8, symBinAddr: 0x100004AB0, symSize: 0x84 }
  - { offsetInCU: 0x79A9, offset: 0x79A9, size: 0x8, addend: 0x0, symName: __ZNSt3__113__unwrap_iterB7v160006INS_16reverse_iteratorIPP4nodeEENS_18__unwrap_iter_implIS5_Lb0EEELi0EEEDTclsrT0_8__unwrapclsr3stdE7declvalIT_EEEES9_, symObjAddr: 0x360C, symBinAddr: 0x100004BD4, symSize: 0x44 }
  - { offsetInCU: 0x79ED, offset: 0x79ED, size: 0x8, addend: 0x0, symName: __ZNSt3__19make_pairB7v160006INS_16reverse_iteratorIPP4nodeEES5_EENS_4pairINS_18__unwrap_ref_decayIT_E4typeENS7_IT0_E4typeEEEOS8_OSB_, symObjAddr: 0x3650, symBinAddr: 0x100004C18, symSize: 0x38 }
  - { offsetInCU: 0x7A3C, offset: 0x7A3C, size: 0x8, addend: 0x0, symName: __ZNSt3__114__rewrap_rangeB7v160006INS_16reverse_iteratorIPP4nodeEES5_EET_S6_T0_, symObjAddr: 0x3688, symBinAddr: 0x100004C50, symSize: 0x5C }
  - { offsetInCU: 0x7A88, offset: 0x7A88, size: 0x8, addend: 0x0, symName: __ZNSt3__113__rewrap_iterB7v160006INS_16reverse_iteratorIPP4nodeEES5_NS_18__unwrap_iter_implIS5_Lb0EEEEET_S8_T0_, symObjAddr: 0x36E4, symBinAddr: 0x100004CAC, symSize: 0x74 }
  - { offsetInCU: 0x7ADD, offset: 0x7ADD, size: 0x8, addend: 0x0, symName: __ZNSt3__1neB7v160006IPP4nodeS3_EEbRKNS_16reverse_iteratorIT_EERKNS4_IT0_EE, symObjAddr: 0x3758, symBinAddr: 0x100004D20, symSize: 0x48 }
  - { offsetInCU: 0x7BDB, offset: 0x7BDB, size: 0x8, addend: 0x0, symName: __ZNSt3__1neB7v160006IPP4nodeEEbRKNS_11__wrap_iterIT_EES8_, symObjAddr: 0x3B7C, symBinAddr: 0x100005144, symSize: 0x34 }
  - { offsetInCU: 0x7C1E, offset: 0x7C1E, size: 0x8, addend: 0x0, symName: __ZNSt3__116__pad_and_outputB7v160006IcNS_11char_traitsIcEEEENS_19ostreambuf_iteratorIT_T0_EES6_PKS4_S8_S8_RNS_8ios_baseES4_, symObjAddr: 0x3E24, symBinAddr: 0x1000053EC, symSize: 0x240 }
  - { offsetInCU: 0x7CED, offset: 0x7CED, size: 0x8, addend: 0x0, symName: __ZNSt3__119__debug_db_insert_cB7v160006INS_12basic_stringIcNS_11char_traitsIcEENS_9allocatorIcEEEEEEvPT_, symObjAddr: 0x42D8, symBinAddr: 0x1000058A0, symSize: 0x10 }
  - { offsetInCU: 0x7D1E, offset: 0x7D1E, size: 0x8, addend: 0x0, symName: __ZNSt3__112__to_addressB7v160006IKcEEPT_S3_, symObjAddr: 0x43A4, symBinAddr: 0x10000596C, symSize: 0x14 }
  - { offsetInCU: 0x7D86, offset: 0x7D86, size: 0x8, addend: 0x0, symName: __ZNSt3__19use_facetB7v160006INS_5ctypeIcEEEERKT_RKNS_6localeE, symObjAddr: 0x4624, symBinAddr: 0x100005BEC, symSize: 0x2C }
  - { offsetInCU: 0x8255, offset: 0x8255, size: 0x8, addend: 0x0, symName: __ZNSt3__118__constexpr_strlenB7v160006EPKc, symObjAddr: 0x46BC, symBinAddr: 0x100005C84, symSize: 0x24 }
  - { offsetInCU: 0x85DE, offset: 0x85DE, size: 0x8, addend: 0x0, symName: __ZSt28__throw_bad_array_new_lengthB7v160006v, symObjAddr: 0x1D18, symBinAddr: 0x1000032E0, symSize: 0x34 }
  - { offsetInCU: 0x8DD6, offset: 0x8DD6, size: 0x8, addend: 0x0, symName: __ZNSt3__16vectorIP4nodeNS_9allocatorIS2_EEE26__swap_out_circular_bufferERNS_14__split_bufferIS2_RS4_EE, symObjAddr: 0x2D7C, symBinAddr: 0x100004344, symSize: 0x118 }
  - { offsetInCU: 0xB073, offset: 0xB073, size: 0x8, addend: 0x0, symName: __ZN4nodeC2Ev, symObjAddr: 0x0, symBinAddr: 0x1000015C8, symSize: 0x174 }
  - { offsetInCU: 0xB09E, offset: 0xB09E, size: 0x8, addend: 0x0, symName: __ZNSt3__16vectorIP4nodeNS_9allocatorIS2_EEEC1B7v160006ESt16initializer_listIS2_E, symObjAddr: 0x174, symBinAddr: 0x10000173C, symSize: 0x3C }
  - { offsetInCU: 0xB0D8, offset: 0xB0D8, size: 0x8, addend: 0x0, symName: __ZNSt3__16vectorIP4nodeNS_9allocatorIS2_EEEixB7v160006Em, symObjAddr: 0x1B0, symBinAddr: 0x100001778, symSize: 0x24 }
  - { offsetInCU: 0xB10E, offset: 0xB10E, size: 0x8, addend: 0x0, symName: __ZNSt3__16vectorIP4nodeNS_9allocatorIS2_EEED1B7v160006Ev, symObjAddr: 0x1D4, symBinAddr: 0x10000179C, symSize: 0x2C }
  - { offsetInCU: 0xB137, offset: 0xB137, size: 0x8, addend: 0x0, symName: __ZN4nodeC1Ev, symObjAddr: 0x200, symBinAddr: 0x1000017C8, symSize: 0x2C }
  - { offsetInCU: 0xB162, offset: 0xB162, size: 0x8, addend: 0x0, symName: __ZN4node12removeEntityEv, symObjAddr: 0x22C, symBinAddr: 0x1000017F4, symSize: 0xD8 }
  - { offsetInCU: 0xB27F, offset: 0xB27F, size: 0x8, addend: 0x0, symName: __ZN8QuadTreeC2EP10SDL_Window, symObjAddr: 0x304, symBinAddr: 0x1000018CC, symSize: 0x13C }
  - { offsetInCU: 0xB2F6, offset: 0xB2F6, size: 0x8, addend: 0x0, symName: __ZNSt3__16vectorIP4nodeNS_9allocatorIS2_EEEC1B7v160006Ev, symObjAddr: 0x440, symBinAddr: 0x100001A08, symSize: 0x2C }
  - { offsetInCU: 0xB31E, offset: 0xB31E, size: 0x8, addend: 0x0, symName: __ZNSt3__16vectorIP4nodeNS_9allocatorIS2_EEE9push_backB7v160006ERKS2_, symObjAddr: 0x46C, symBinAddr: 0x100001A34, symSize: 0x6C }
  - { offsetInCU: 0xB354, offset: 0xB354, size: 0x8, addend: 0x0, symName: __ZN8QuadTreeC1EP10SDL_Window, symObjAddr: 0x4D8, symBinAddr: 0x100001AA0, symSize: 0x34 }
  - { offsetInCU: 0xB38D, offset: 0xB38D, size: 0x8, addend: 0x0, symName: __ZN8QuadTreeD2Ev, symObjAddr: 0x50C, symBinAddr: 0x100001AD4, symSize: 0x16C }
  - { offsetInCU: 0xB3E0, offset: 0xB3E0, size: 0x8, addend: 0x0, symName: __ZNKSt3__16vectorIP4nodeNS_9allocatorIS2_EEE4sizeB7v160006Ev, symObjAddr: 0x678, symBinAddr: 0x100001C40, symSize: 0x28 }
  - { offsetInCU: 0xB404, offset: 0xB404, size: 0x8, addend: 0x0, symName: __ZNSt3__16vectorIP4nodeNS_9allocatorIS2_EEE5beginB7v160006Ev, symObjAddr: 0x768, symBinAddr: 0x100001D30, symSize: 0x30 }
  - { offsetInCU: 0xB42A, offset: 0xB42A, size: 0x8, addend: 0x0, symName: __ZNSt3__16vectorIP4nodeNS_9allocatorIS2_EEE3endB7v160006Ev, symObjAddr: 0x798, symBinAddr: 0x100001D60, symSize: 0x30 }
  - { offsetInCU: 0xB451, offset: 0xB451, size: 0x8, addend: 0x0, symName: __ZN4nodeD1Ev, symObjAddr: 0x7D4, symBinAddr: 0x100001D9C, symSize: 0x2C }
  - { offsetInCU: 0xB47C, offset: 0xB47C, size: 0x8, addend: 0x0, symName: __ZN8QuadTreeD1Ev, symObjAddr: 0x800, symBinAddr: 0x100001DC8, symSize: 0x2C }
  - { offsetInCU: 0xB4A7, offset: 0xB4A7, size: 0x8, addend: 0x0, symName: __ZN8QuadTree13calcDirectionEP4nodeP6entity, symObjAddr: 0x82C, symBinAddr: 0x100001DF4, symSize: 0x1E0 }
  - { offsetInCU: 0xB506, offset: 0xB506, size: 0x8, addend: 0x0, symName: __ZN8QuadTree6insertEP6entityP4node, symObjAddr: 0xA0C, symBinAddr: 0x100001FD4, symSize: 0x430 }
  - { offsetInCU: 0xB5F9, offset: 0xB5F9, size: 0x8, addend: 0x0, symName: __ZN8QuadTree11textDisplayEP4nodei, symObjAddr: 0xE3C, symBinAddr: 0x100002404, symSize: 0x27C }
  - { offsetInCU: 0xB659, offset: 0xB659, size: 0x8, addend: 0x0, symName: __ZN8QuadTree17visualDisplayToolEP4nodeP12SDL_Renderer, symObjAddr: 0x1100, symBinAddr: 0x1000026C8, symSize: 0x22C }
  - { offsetInCU: 0xB6C7, offset: 0xB6C7, size: 0x8, addend: 0x0, symName: __ZN8QuadTree13visualDisplayEP4nodeP12SDL_Renderer, symObjAddr: 0x132C, symBinAddr: 0x1000028F4, symSize: 0x54 }
  - { offsetInCU: 0xB70A, offset: 0xB70A, size: 0x8, addend: 0x0, symName: __ZNKSt3__111__wrap_iterIPP4nodeE4baseB7v160006Ev, symObjAddr: 0x1380, symBinAddr: 0x100002948, symSize: 0x18 }
  - { offsetInCU: 0xB72F, offset: 0xB72F, size: 0x8, addend: 0x0, symName: __ZN4nodeD2Ev, symObjAddr: 0x1398, symBinAddr: 0x100002960, symSize: 0x30 }
  - { offsetInCU: 0xB75A, offset: 0xB75A, size: 0x8, addend: 0x0, symName: __ZNSt3__16vectorIP4nodeNS_9allocatorIS2_EEEC2B7v160006ESt16initializer_listIS2_E, symObjAddr: 0x13C8, symBinAddr: 0x100002990, symSize: 0x124 }
  - { offsetInCU: 0xB7B4, offset: 0xB7B4, size: 0x8, addend: 0x0, symName: __ZNSt3__117__compressed_pairIPP4nodeNS_9allocatorIS2_EEEC1B7v160006IDnNS_18__default_init_tagEEEOT_OT0_, symObjAddr: 0x14EC, symBinAddr: 0x100002AB4, symSize: 0x3C }
  - { offsetInCU: 0xB80B, offset: 0xB80B, size: 0x8, addend: 0x0, symName: __ZNSt3__16vectorIP4nodeNS_9allocatorIS2_EEE16__destroy_vectorC1ERS5_, symObjAddr: 0x1568, symBinAddr: 0x100002B30, symSize: 0x34 }
  - { offsetInCU: 0xB843, offset: 0xB843, size: 0x8, addend: 0x0, symName: __ZNKSt16initializer_listIP4nodeE4sizeB7v160006Ev, symObjAddr: 0x15AC, symBinAddr: 0x100002B74, symSize: 0x18 }
  - { offsetInCU: 0xB868, offset: 0xB868, size: 0x8, addend: 0x0, symName: __ZNSt3__16vectorIP4nodeNS_9allocatorIS2_EEE11__vallocateB7v160006Em, symObjAddr: 0x15C4, symBinAddr: 0x100002B8C, symSize: 0xAC }
  - { offsetInCU: 0xB8AA, offset: 0xB8AA, size: 0x8, addend: 0x0, symName: __ZNSt3__16vectorIP4nodeNS_9allocatorIS2_EEE18__construct_at_endIPKS2_Li0EEEvT_S9_m, symObjAddr: 0x1670, symBinAddr: 0x100002C38, symSize: 0x8C }
  - { offsetInCU: 0xB91C, offset: 0xB91C, size: 0x8, addend: 0x0, symName: __ZNKSt16initializer_listIP4nodeE5beginB7v160006Ev, symObjAddr: 0x16FC, symBinAddr: 0x100002CC4, symSize: 0x18 }
  - { offsetInCU: 0xB941, offset: 0xB941, size: 0x8, addend: 0x0, symName: __ZNKSt16initializer_listIP4nodeE3endB7v160006Ev, symObjAddr: 0x1714, symBinAddr: 0x100002CDC, symSize: 0x20 }
  - { offsetInCU: 0xB966, offset: 0xB966, size: 0x8, addend: 0x0, symName: __ZNSt3__128__exception_guard_exceptionsINS_6vectorIP4nodeNS_9allocatorIS3_EEE16__destroy_vectorEE10__completeB7v160006Ev, symObjAddr: 0x1734, symBinAddr: 0x100002CFC, symSize: 0x1C }
  - { offsetInCU: 0xB98B, offset: 0xB98B, size: 0x8, addend: 0x0, symName: __ZNSt3__128__exception_guard_exceptionsINS_6vectorIP4nodeNS_9allocatorIS3_EEE16__destroy_vectorEED1B7v160006Ev, symObjAddr: 0x1750, symBinAddr: 0x100002D18, symSize: 0x2C }
  - { offsetInCU: 0xB9B4, offset: 0xB9B4, size: 0x8, addend: 0x0, symName: __ZNSt3__117__compressed_pairIPP4nodeNS_9allocatorIS2_EEEC2B7v160006IDnNS_18__default_init_tagEEEOT_OT0_, symObjAddr: 0x177C, symBinAddr: 0x100002D44, symSize: 0x40 }
  - { offsetInCU: 0xBA0B, offset: 0xBA0B, size: 0x8, addend: 0x0, symName: __ZNSt3__122__compressed_pair_elemIPP4nodeLi0ELb0EEC2B7v160006IDnvEEOT_, symObjAddr: 0x17BC, symBinAddr: 0x100002D84, symSize: 0x1C }
  - { offsetInCU: 0xBA4C, offset: 0xBA4C, size: 0x8, addend: 0x0, symName: __ZNSt3__122__compressed_pair_elemINS_9allocatorIP4nodeEELi1ELb1EEC2B7v160006ENS_18__default_init_tagE, symObjAddr: 0x17D8, symBinAddr: 0x100002DA0, symSize: 0x2C }
  - { offsetInCU: 0xBA80, offset: 0xBA80, size: 0x8, addend: 0x0, symName: __ZNSt3__19allocatorIP4nodeEC2B7v160006Ev, symObjAddr: 0x1804, symBinAddr: 0x100002DCC, symSize: 0x2C }
  - { offsetInCU: 0xBAA9, offset: 0xBAA9, size: 0x8, addend: 0x0, symName: __ZNSt3__116__non_trivial_ifILb1ENS_9allocatorIP4nodeEEEC2B7v160006Ev, symObjAddr: 0x1830, symBinAddr: 0x100002DF8, symSize: 0x14 }
  - { offsetInCU: 0xBAD2, offset: 0xBAD2, size: 0x8, addend: 0x0, symName: __ZNSt3__128__exception_guard_exceptionsINS_6vectorIP4nodeNS_9allocatorIS3_EEE16__destroy_vectorEEC1B7v160006ES7_, symObjAddr: 0x1844, symBinAddr: 0x100002E0C, symSize: 0x34 }
  - { offsetInCU: 0xBB09, offset: 0xBB09, size: 0x8, addend: 0x0, symName: __ZNSt3__128__exception_guard_exceptionsINS_6vectorIP4nodeNS_9allocatorIS3_EEE16__destroy_vectorEEC2B7v160006ES7_, symObjAddr: 0x1878, symBinAddr: 0x100002E40, symSize: 0x24 }
  - { offsetInCU: 0xBB40, offset: 0xBB40, size: 0x8, addend: 0x0, symName: __ZNSt3__16vectorIP4nodeNS_9allocatorIS2_EEE16__destroy_vectorC2ERS5_, symObjAddr: 0x189C, symBinAddr: 0x100002E64, symSize: 0x20 }
  - { offsetInCU: 0xBB77, offset: 0xBB77, size: 0x8, addend: 0x0, symName: __ZNKSt3__16vectorIP4nodeNS_9allocatorIS2_EEE8max_sizeEv, symObjAddr: 0x18BC, symBinAddr: 0x100002E84, symSize: 0x60 }
  - { offsetInCU: 0xBB9E, offset: 0xBB9E, size: 0x8, addend: 0x0, symName: __ZNKSt3__16vectorIP4nodeNS_9allocatorIS2_EEE20__throw_length_errorB7v160006Ev, symObjAddr: 0x191C, symBinAddr: 0x100002EE4, symSize: 0x1C }
  - { offsetInCU: 0xBBC3, offset: 0xBBC3, size: 0x8, addend: 0x0, symName: __ZNSt3__16vectorIP4nodeNS_9allocatorIS2_EEE7__allocB7v160006Ev, symObjAddr: 0x1978, symBinAddr: 0x100002F40, symSize: 0x28 }
  - { offsetInCU: 0xBBE8, offset: 0xBBE8, size: 0x8, addend: 0x0, symName: __ZNSt3__16vectorIP4nodeNS_9allocatorIS2_EEE9__end_capB7v160006Ev, symObjAddr: 0x19A0, symBinAddr: 0x100002F68, symSize: 0x28 }
  - { offsetInCU: 0xBC0D, offset: 0xBC0D, size: 0x8, addend: 0x0, symName: __ZNKSt3__16vectorIP4nodeNS_9allocatorIS2_EEE14__annotate_newB7v160006Em, symObjAddr: 0x19C8, symBinAddr: 0x100002F90, symSize: 0xAC }
  - { offsetInCU: 0xBC4B, offset: 0xBC4B, size: 0x8, addend: 0x0, symName: __ZNSt3__116allocator_traitsINS_9allocatorIP4nodeEEE8max_sizeB7v160006IS4_vEEmRKS4_, symObjAddr: 0x1AA0, symBinAddr: 0x100003068, symSize: 0x24 }
  - { offsetInCU: 0xBC79, offset: 0xBC79, size: 0x8, addend: 0x0, symName: __ZNKSt3__16vectorIP4nodeNS_9allocatorIS2_EEE7__allocB7v160006Ev, symObjAddr: 0x1AC4, symBinAddr: 0x10000308C, symSize: 0x28 }
  - { offsetInCU: 0xBC9E, offset: 0xBC9E, size: 0x8, addend: 0x0, symName: __ZNSt3__114numeric_limitsIlE3maxB7v160006Ev, symObjAddr: 0x1AEC, symBinAddr: 0x1000030B4, symSize: 0x14 }
  - { offsetInCU: 0xBCC6, offset: 0xBCC6, size: 0x8, addend: 0x0, symName: __ZNKSt3__16__lessImmEclB7v160006ERKmS3_, symObjAddr: 0x1B54, symBinAddr: 0x10000311C, symSize: 0x34 }
  - { offsetInCU: 0xBD07, offset: 0xBD07, size: 0x8, addend: 0x0, symName: __ZNKSt3__19allocatorIP4nodeE8max_sizeB7v160006Ev, symObjAddr: 0x1B88, symBinAddr: 0x100003150, symSize: 0x14 }
  - { offsetInCU: 0xBD2C, offset: 0xBD2C, size: 0x8, addend: 0x0, symName: __ZNKSt3__117__compressed_pairIPP4nodeNS_9allocatorIS2_EEE6secondB7v160006Ev, symObjAddr: 0x1B9C, symBinAddr: 0x100003164, symSize: 0x24 }
  - { offsetInCU: 0xBD51, offset: 0xBD51, size: 0x8, addend: 0x0, symName: __ZNKSt3__122__compressed_pair_elemINS_9allocatorIP4nodeEELi1ELb1EE5__getB7v160006Ev, symObjAddr: 0x1BC0, symBinAddr: 0x100003188, symSize: 0x14 }
  - { offsetInCU: 0xBD76, offset: 0xBD76, size: 0x8, addend: 0x0, symName: __ZNSt3__123__libcpp_numeric_limitsIlLb1EE3maxB7v160006Ev, symObjAddr: 0x1BD4, symBinAddr: 0x10000319C, symSize: 0x8 }
  - { offsetInCU: 0xBD8A, offset: 0xBD8A, size: 0x8, addend: 0x0, symName: __ZNSt12length_errorC1B7v160006EPKc, symObjAddr: 0x1C40, symBinAddr: 0x100003208, symSize: 0x34 }
  - { offsetInCU: 0xBDC1, offset: 0xBDC1, size: 0x8, addend: 0x0, symName: __ZNSt12length_errorC2B7v160006EPKc, symObjAddr: 0x1C74, symBinAddr: 0x10000323C, symSize: 0x4C }
  - { offsetInCU: 0xBDF8, offset: 0xBDF8, size: 0x8, addend: 0x0, symName: __ZNSt3__19allocatorIP4nodeE8allocateB7v160006Em, symObjAddr: 0x1CC0, symBinAddr: 0x100003288, symSize: 0x58 }
  - { offsetInCU: 0xBE2B, offset: 0xBE2B, size: 0x8, addend: 0x0, symName: __ZNSt3__117__compressed_pairIPP4nodeNS_9allocatorIS2_EEE6secondB7v160006Ev, symObjAddr: 0x1D98, symBinAddr: 0x100003360, symSize: 0x24 }
  - { offsetInCU: 0xBE50, offset: 0xBE50, size: 0x8, addend: 0x0, symName: __ZNSt3__122__compressed_pair_elemINS_9allocatorIP4nodeEELi1ELb1EE5__getB7v160006Ev, symObjAddr: 0x1DBC, symBinAddr: 0x100003384, symSize: 0x14 }
  - { offsetInCU: 0xBE75, offset: 0xBE75, size: 0x8, addend: 0x0, symName: __ZNSt3__117__compressed_pairIPP4nodeNS_9allocatorIS2_EEE5firstB7v160006Ev, symObjAddr: 0x1DD0, symBinAddr: 0x100003398, symSize: 0x24 }
  - { offsetInCU: 0xBE9A, offset: 0xBE9A, size: 0x8, addend: 0x0, symName: __ZNSt3__122__compressed_pair_elemIPP4nodeLi0ELb0EE5__getB7v160006Ev, symObjAddr: 0x1DF4, symBinAddr: 0x1000033BC, symSize: 0x14 }
  - { offsetInCU: 0xBEBF, offset: 0xBEBF, size: 0x8, addend: 0x0, symName: __ZNKSt3__16vectorIP4nodeNS_9allocatorIS2_EEE31__annotate_contiguous_containerB7v160006EPKvS7_S7_S7_, symObjAddr: 0x1E08, symBinAddr: 0x1000033D0, symSize: 0x20 }
  - { offsetInCU: 0xBF10, offset: 0xBF10, size: 0x8, addend: 0x0, symName: __ZNKSt3__16vectorIP4nodeNS_9allocatorIS2_EEE4dataB7v160006Ev, symObjAddr: 0x1E28, symBinAddr: 0x1000033F0, symSize: 0x28 }
  - { offsetInCU: 0xBF35, offset: 0xBF35, size: 0x8, addend: 0x0, symName: __ZNKSt3__16vectorIP4nodeNS_9allocatorIS2_EEE8capacityB7v160006Ev, symObjAddr: 0x1E50, symBinAddr: 0x100003418, symSize: 0x40 }
  - { offsetInCU: 0xBF5A, offset: 0xBF5A, size: 0x8, addend: 0x0, symName: __ZNKSt3__16vectorIP4nodeNS_9allocatorIS2_EEE9__end_capB7v160006Ev, symObjAddr: 0x1EA4, symBinAddr: 0x10000346C, symSize: 0x28 }
  - { offsetInCU: 0xBF7F, offset: 0xBF7F, size: 0x8, addend: 0x0, symName: __ZNKSt3__117__compressed_pairIPP4nodeNS_9allocatorIS2_EEE5firstB7v160006Ev, symObjAddr: 0x1ECC, symBinAddr: 0x100003494, symSize: 0x24 }
  - { offsetInCU: 0xBFA4, offset: 0xBFA4, size: 0x8, addend: 0x0, symName: __ZNKSt3__122__compressed_pair_elemIPP4nodeLi0ELb0EE5__getB7v160006Ev, symObjAddr: 0x1EF0, symBinAddr: 0x1000034B8, symSize: 0x14 }
  - { offsetInCU: 0xBFE2, offset: 0xBFE2, size: 0x8, addend: 0x0, symName: __ZNSt3__16vectorIP4nodeNS_9allocatorIS2_EEE21_ConstructTransactionC1B7v160006ERS5_m, symObjAddr: 0x1F04, symBinAddr: 0x1000034CC, symSize: 0x3C }
  - { offsetInCU: 0xC029, offset: 0xC029, size: 0x8, addend: 0x0, symName: __ZNSt3__16vectorIP4nodeNS_9allocatorIS2_EEE21_ConstructTransactionD1B7v160006Ev, symObjAddr: 0x1F78, symBinAddr: 0x100003540, symSize: 0x2C }
  - { offsetInCU: 0xC052, offset: 0xC052, size: 0x8, addend: 0x0, symName: __ZNSt3__16vectorIP4nodeNS_9allocatorIS2_EEE21_ConstructTransactionC2B7v160006ERS5_m, symObjAddr: 0x1FA4, symBinAddr: 0x10000356C, symSize: 0x44 }
  - { offsetInCU: 0xC0BC, offset: 0xC0BC, size: 0x8, addend: 0x0, symName: __ZNKSt3__114__copy_trivialclB7v160006IKP4nodeS3_Li0EEENS_4pairIPT_PT0_EES7_S7_S9_, symObjAddr: 0x21C4, symBinAddr: 0x10000378C, symSize: 0x48 }
  - { offsetInCU: 0xC141, offset: 0xC141, size: 0x8, addend: 0x0, symName: __ZNSt3__14pairIPKP4nodeS4_EC1B7v160006IS4_S4_LPv0EEEOT_OT0_, symObjAddr: 0x232C, symBinAddr: 0x1000038F4, symSize: 0x3C }
  - { offsetInCU: 0xC19E, offset: 0xC19E, size: 0x8, addend: 0x0, symName: __ZNSt3__14pairIPKP4nodeS4_EC2B7v160006IS4_S4_LPv0EEEOT_OT0_, symObjAddr: 0x2368, symBinAddr: 0x100003930, symSize: 0x34 }
  - { offsetInCU: 0xC1FB, offset: 0xC1FB, size: 0x8, addend: 0x0, symName: __ZNSt3__118__unwrap_iter_implIPKP4nodeLb1EE8__unwrapB7v160006ES4_, symObjAddr: 0x239C, symBinAddr: 0x100003964, symSize: 0x24 }
  - { offsetInCU: 0xC228, offset: 0xC228, size: 0x8, addend: 0x0, symName: __ZNSt3__14pairIPKP4nodePS2_EC1B7v160006IRS4_S5_LPv0EEEOT_OT0_, symObjAddr: 0x2490, symBinAddr: 0x100003A58, symSize: 0x3C }
  - { offsetInCU: 0xC285, offset: 0xC285, size: 0x8, addend: 0x0, symName: __ZNSt3__14pairIPKP4nodePS2_EC2B7v160006IRS4_S5_LPv0EEEOT_OT0_, symObjAddr: 0x24CC, symBinAddr: 0x100003A94, symSize: 0x34 }
  - { offsetInCU: 0xC2E2, offset: 0xC2E2, size: 0x8, addend: 0x0, symName: __ZNSt3__118__unwrap_iter_implIPP4nodeLb1EE8__unwrapB7v160006ES3_, symObjAddr: 0x2500, symBinAddr: 0x100003AC8, symSize: 0x24 }
  - { offsetInCU: 0xC305, offset: 0xC305, size: 0x8, addend: 0x0, symName: __ZNSt3__14pairIPKP4nodePS2_EC1B7v160006IS4_S5_LPv0EEEOT_OT0_, symObjAddr: 0x2524, symBinAddr: 0x100003AEC, symSize: 0x3C }
  - { offsetInCU: 0xC362, offset: 0xC362, size: 0x8, addend: 0x0, symName: __ZNSt3__14pairIPKP4nodePS2_EC2B7v160006IS4_S5_LPv0EEEOT_OT0_, symObjAddr: 0x2560, symBinAddr: 0x100003B28, symSize: 0x34 }
  - { offsetInCU: 0xC3BF, offset: 0xC3BF, size: 0x8, addend: 0x0, symName: __ZNSt3__118__unwrap_iter_implIPKP4nodeLb1EE8__rewrapB7v160006ES4_S4_, symObjAddr: 0x25D0, symBinAddr: 0x100003B98, symSize: 0x50 }
  - { offsetInCU: 0xC3F0, offset: 0xC3F0, size: 0x8, addend: 0x0, symName: __ZNSt3__118__unwrap_iter_implIPP4nodeLb1EE8__rewrapB7v160006ES3_S3_, symObjAddr: 0x2620, symBinAddr: 0x100003BE8, symSize: 0x50 }
  - { offsetInCU: 0xC421, offset: 0xC421, size: 0x8, addend: 0x0, symName: __ZNSt3__16vectorIP4nodeNS_9allocatorIS2_EEE21_ConstructTransactionD2B7v160006Ev, symObjAddr: 0x2670, symBinAddr: 0x100003C38, symSize: 0x20 }
  - { offsetInCU: 0xC44A, offset: 0xC44A, size: 0x8, addend: 0x0, symName: __ZNSt3__128__exception_guard_exceptionsINS_6vectorIP4nodeNS_9allocatorIS3_EEE16__destroy_vectorEED2B7v160006Ev, symObjAddr: 0x2690, symBinAddr: 0x100003C58, symSize: 0x50 }
  - { offsetInCU: 0xC473, offset: 0xC473, size: 0x8, addend: 0x0, symName: __ZNSt3__16vectorIP4nodeNS_9allocatorIS2_EEE16__destroy_vectorclB7v160006Ev, symObjAddr: 0x26E0, symBinAddr: 0x100003CA8, symSize: 0x9C }
  - { offsetInCU: 0xC498, offset: 0xC498, size: 0x8, addend: 0x0, symName: __ZNKSt3__16vectorIP4nodeNS_9allocatorIS2_EEE17__annotate_deleteB7v160006Ev, symObjAddr: 0x277C, symBinAddr: 0x100003D44, symSize: 0xB8 }
  - { offsetInCU: 0xC4BD, offset: 0xC4BD, size: 0x8, addend: 0x0, symName: __ZNSt3__16vectorIP4nodeNS_9allocatorIS2_EEE7__clearB7v160006Ev, symObjAddr: 0x2844, symBinAddr: 0x100003E0C, symSize: 0x28 }
  - { offsetInCU: 0xC4E2, offset: 0xC4E2, size: 0x8, addend: 0x0, symName: __ZNSt3__116allocator_traitsINS_9allocatorIP4nodeEEE10deallocateB7v160006ERS4_PS3_m, symObjAddr: 0x286C, symBinAddr: 0x100003E34, symSize: 0x34 }
  - { offsetInCU: 0xC524, offset: 0xC524, size: 0x8, addend: 0x0, symName: __ZNSt3__16vectorIP4nodeNS_9allocatorIS2_EEE22__base_destruct_at_endB7v160006EPS2_, symObjAddr: 0x28A0, symBinAddr: 0x100003E68, symSize: 0x8C }
  - { offsetInCU: 0xC567, offset: 0xC567, size: 0x8, addend: 0x0, symName: __ZNSt3__116allocator_traitsINS_9allocatorIP4nodeEEE7destroyB7v160006IS3_vEEvRS4_PT_, symObjAddr: 0x292C, symBinAddr: 0x100003EF4, symSize: 0x2C }
  - { offsetInCU: 0xC5A4, offset: 0xC5A4, size: 0x8, addend: 0x0, symName: __ZNSt3__19allocatorIP4nodeE7destroyB7v160006EPS2_, symObjAddr: 0x2958, symBinAddr: 0x100003F20, symSize: 0x14 }
  - { offsetInCU: 0xC5D7, offset: 0xC5D7, size: 0x8, addend: 0x0, symName: __ZNSt3__19allocatorIP4nodeE10deallocateB7v160006EPS2_m, symObjAddr: 0x296C, symBinAddr: 0x100003F34, symSize: 0x40 }
  - { offsetInCU: 0xC618, offset: 0xC618, size: 0x8, addend: 0x0, symName: __ZNSt3__16vectorIP4nodeNS_9allocatorIS2_EEED2B7v160006Ev, symObjAddr: 0x2A28, symBinAddr: 0x100003FF0, symSize: 0x44 }
  - { offsetInCU: 0xC641, offset: 0xC641, size: 0x8, addend: 0x0, symName: __ZNSt3__16vectorIP4nodeNS_9allocatorIS2_EEEC2B7v160006Ev, symObjAddr: 0x2A6C, symBinAddr: 0x100004034, symSize: 0x54 }
  - { offsetInCU: 0xC66A, offset: 0xC66A, size: 0x8, addend: 0x0, symName: __ZNSt3__16vectorIP4nodeNS_9allocatorIS2_EEE22__construct_one_at_endB7v160006IJRKS2_EEEvDpOT_, symObjAddr: 0x2AC0, symBinAddr: 0x100004088, symSize: 0x90 }
  - { offsetInCU: 0xC6B7, offset: 0xC6B7, size: 0x8, addend: 0x0, symName: __ZNSt3__16vectorIP4nodeNS_9allocatorIS2_EEE21__push_back_slow_pathIRKS2_EEvOT_, symObjAddr: 0x2B50, symBinAddr: 0x100004118, symSize: 0xD8 }
  - { offsetInCU: 0xC714, offset: 0xC714, size: 0x8, addend: 0x0, symName: __ZNSt3__116allocator_traitsINS_9allocatorIP4nodeEEE9constructB7v160006IS3_JRKS3_EvEEvRS4_PT_DpOT0_, symObjAddr: 0x2C28, symBinAddr: 0x1000041F0, symSize: 0x34 }
  - { offsetInCU: 0xC76B, offset: 0xC76B, size: 0x8, addend: 0x0, symName: __ZNSt3__19allocatorIP4nodeE9constructB7v160006IS2_JRKS2_EEEvPT_DpOT0_, symObjAddr: 0x2C5C, symBinAddr: 0x100004224, symSize: 0x28 }
  - { offsetInCU: 0xC7BF, offset: 0xC7BF, size: 0x8, addend: 0x0, symName: __ZNKSt3__16vectorIP4nodeNS_9allocatorIS2_EEE11__recommendB7v160006Em, symObjAddr: 0x2C84, symBinAddr: 0x10000424C, symSize: 0xB4 }
  - { offsetInCU: 0xC813, offset: 0xC813, size: 0x8, addend: 0x0, symName: __ZNSt3__114__split_bufferIP4nodeRNS_9allocatorIS2_EEEC1EmmS5_, symObjAddr: 0x2D38, symBinAddr: 0x100004300, symSize: 0x44 }
  - { offsetInCU: 0xC868, offset: 0xC868, size: 0x8, addend: 0x0, symName: __ZNSt3__114__split_bufferIP4nodeRNS_9allocatorIS2_EEED1Ev, symObjAddr: 0x2E94, symBinAddr: 0x10000445C, symSize: 0x2C }
  - { offsetInCU: 0xC893, offset: 0xC893, size: 0x8, addend: 0x0, symName: __ZNSt3__114__split_bufferIP4nodeRNS_9allocatorIS2_EEEC2EmmS5_, symObjAddr: 0x2F40, symBinAddr: 0x100004508, symSize: 0xD4 }
  - { offsetInCU: 0xC906, offset: 0xC906, size: 0x8, addend: 0x0, symName: __ZNSt3__117__compressed_pairIPP4nodeRNS_9allocatorIS2_EEEC1B7v160006IDnS6_EEOT_OT0_, symObjAddr: 0x3014, symBinAddr: 0x1000045DC, symSize: 0x3C }
  - { offsetInCU: 0xC95D, offset: 0xC95D, size: 0x8, addend: 0x0, symName: __ZNSt3__114__split_bufferIP4nodeRNS_9allocatorIS2_EEE7__allocB7v160006Ev, symObjAddr: 0x3050, symBinAddr: 0x100004618, symSize: 0x28 }
  - { offsetInCU: 0xC982, offset: 0xC982, size: 0x8, addend: 0x0, symName: __ZNSt3__114__split_bufferIP4nodeRNS_9allocatorIS2_EEE9__end_capB7v160006Ev, symObjAddr: 0x3078, symBinAddr: 0x100004640, symSize: 0x28 }
  - { offsetInCU: 0xC9A7, offset: 0xC9A7, size: 0x8, addend: 0x0, symName: __ZNSt3__117__compressed_pairIPP4nodeRNS_9allocatorIS2_EEEC2B7v160006IDnS6_EEOT_OT0_, symObjAddr: 0x30A0, symBinAddr: 0x100004668, symSize: 0x48 }
  - { offsetInCU: 0xC9FE, offset: 0xC9FE, size: 0x8, addend: 0x0, symName: __ZNSt3__122__compressed_pair_elemIRNS_9allocatorIP4nodeEELi1ELb0EEC2B7v160006IS5_vEEOT_, symObjAddr: 0x30E8, symBinAddr: 0x1000046B0, symSize: 0x20 }
  - { offsetInCU: 0xCA3F, offset: 0xCA3F, size: 0x8, addend: 0x0, symName: __ZNSt3__117__compressed_pairIPP4nodeRNS_9allocatorIS2_EEE6secondB7v160006Ev, symObjAddr: 0x3108, symBinAddr: 0x1000046D0, symSize: 0x28 }
  - { offsetInCU: 0xCA64, offset: 0xCA64, size: 0x8, addend: 0x0, symName: __ZNSt3__122__compressed_pair_elemIRNS_9allocatorIP4nodeEELi1ELb0EE5__getB7v160006Ev, symObjAddr: 0x3130, symBinAddr: 0x1000046F8, symSize: 0x18 }
  - { offsetInCU: 0xCA89, offset: 0xCA89, size: 0x8, addend: 0x0, symName: __ZNSt3__117__compressed_pairIPP4nodeRNS_9allocatorIS2_EEE5firstB7v160006Ev, symObjAddr: 0x3148, symBinAddr: 0x100004710, symSize: 0x24 }
  - { offsetInCU: 0xCAAE, offset: 0xCAAE, size: 0x8, addend: 0x0, symName: __ZNSt3__116reverse_iteratorIPP4nodeEC1B7v160006ES3_, symObjAddr: 0x31E4, symBinAddr: 0x1000047AC, symSize: 0x34 }
  - { offsetInCU: 0xCAE5, offset: 0xCAE5, size: 0x8, addend: 0x0, symName: __ZNKSt3__116reverse_iteratorIPP4nodeE4baseB7v160006Ev, symObjAddr: 0x3218, symBinAddr: 0x1000047E0, symSize: 0x18 }
  - { offsetInCU: 0xCB2D, offset: 0xCB2D, size: 0x8, addend: 0x0, symName: __ZNKSt3__111__move_loopINS_17_ClassicAlgPolicyEEclB7v160006INS_16reverse_iteratorIPP4nodeEES8_S8_EENS_4pairIT_T1_EESA_T0_SB_, symObjAddr: 0x356C, symBinAddr: 0x100004B34, symSize: 0xA0 }
  - { offsetInCU: 0xCB9C, offset: 0xCB9C, size: 0x8, addend: 0x0, symName: __ZNSt3__18_IterOpsINS_17_ClassicAlgPolicyEE11__iter_moveB7v160006IRNS_16reverse_iteratorIPP4nodeEEEENS_9enable_ifIXsr12is_referenceIDTdeclsr3stdE7declvalIRT_EEEEE5valueEDTclsr3stdE4movedeclsr3stdE7declvalISC_EEEEE4typeEOSB_, symObjAddr: 0x37A0, symBinAddr: 0x100004D68, symSize: 0x28 }
  - { offsetInCU: 0xCBC8, offset: 0xCBC8, size: 0x8, addend: 0x0, symName: __ZNKSt3__116reverse_iteratorIPP4nodeEdeB7v160006Ev, symObjAddr: 0x37C8, symBinAddr: 0x100004D90, symSize: 0x28 }
  - { offsetInCU: 0xCBFB, offset: 0xCBFB, size: 0x8, addend: 0x0, symName: __ZNSt3__116reverse_iteratorIPP4nodeEppB7v160006Ev, symObjAddr: 0x37F0, symBinAddr: 0x100004DB8, symSize: 0x20 }
  - { offsetInCU: 0xCC20, offset: 0xCC20, size: 0x8, addend: 0x0, symName: __ZNSt3__18_IterOpsINS_17_ClassicAlgPolicyEE25__validate_iter_referenceB7v160006IRNS_16reverse_iteratorIPP4nodeEEEEvv, symObjAddr: 0x3810, symBinAddr: 0x100004DD8, symSize: 0x4 }
  - { offsetInCU: 0xCC3E, offset: 0xCC3E, size: 0x8, addend: 0x0, symName: __ZNSt3__118__unwrap_iter_implINS_16reverse_iteratorIPP4nodeEELb0EE8__unwrapB7v160006ES5_, symObjAddr: 0x3814, symBinAddr: 0x100004DDC, symSize: 0x24 }
  - { offsetInCU: 0xCC66, offset: 0xCC66, size: 0x8, addend: 0x0, symName: __ZNSt3__14pairINS_16reverse_iteratorIPP4nodeEES5_EC1B7v160006IS5_S5_LPv0EEEOT_OT0_, symObjAddr: 0x3838, symBinAddr: 0x100004E00, symSize: 0x3C }
  - { offsetInCU: 0xCCC3, offset: 0xCCC3, size: 0x8, addend: 0x0, symName: __ZNSt3__14pairINS_16reverse_iteratorIPP4nodeEES5_EC2B7v160006IS5_S5_LPv0EEEOT_OT0_, symObjAddr: 0x3874, symBinAddr: 0x100004E3C, symSize: 0x34 }
  - { offsetInCU: 0xCD20, offset: 0xCD20, size: 0x8, addend: 0x0, symName: __ZNSt3__118__unwrap_iter_implINS_16reverse_iteratorIPP4nodeEELb0EE8__rewrapB7v160006ES5_S5_, symObjAddr: 0x38A8, symBinAddr: 0x100004E70, symSize: 0x2C }
  - { offsetInCU: 0xCD4E, offset: 0xCD4E, size: 0x8, addend: 0x0, symName: __ZNSt3__116reverse_iteratorIPP4nodeEC2B7v160006ES3_, symObjAddr: 0x38D4, symBinAddr: 0x100004E9C, symSize: 0x28 }
  - { offsetInCU: 0xCD85, offset: 0xCD85, size: 0x8, addend: 0x0, symName: __ZNSt3__114__split_bufferIP4nodeRNS_9allocatorIS2_EEED2Ev, symObjAddr: 0x38FC, symBinAddr: 0x100004EC4, symSize: 0x8C }
  - { offsetInCU: 0xCDB0, offset: 0xCDB0, size: 0x8, addend: 0x0, symName: __ZNSt3__114__split_bufferIP4nodeRNS_9allocatorIS2_EEE5clearB7v160006Ev, symObjAddr: 0x3988, symBinAddr: 0x100004F50, symSize: 0x28 }
  - { offsetInCU: 0xCDD5, offset: 0xCDD5, size: 0x8, addend: 0x0, symName: __ZNKSt3__114__split_bufferIP4nodeRNS_9allocatorIS2_EEE8capacityB7v160006Ev, symObjAddr: 0x39B0, symBinAddr: 0x100004F78, symSize: 0x40 }
  - { offsetInCU: 0xCDFA, offset: 0xCDFA, size: 0x8, addend: 0x0, symName: __ZNSt3__114__split_bufferIP4nodeRNS_9allocatorIS2_EEE17__destruct_at_endB7v160006EPS2_, symObjAddr: 0x39F0, symBinAddr: 0x100004FB8, symSize: 0x2C }
  - { offsetInCU: 0xCE2C, offset: 0xCE2C, size: 0x8, addend: 0x0, symName: __ZNSt3__114__split_bufferIP4nodeRNS_9allocatorIS2_EEE17__destruct_at_endB7v160006EPS2_NS_17integral_constantIbLb0EEE, symObjAddr: 0x3A1C, symBinAddr: 0x100004FE4, symSize: 0x80 }
  - { offsetInCU: 0xCE6C, offset: 0xCE6C, size: 0x8, addend: 0x0, symName: __ZNKSt3__114__split_bufferIP4nodeRNS_9allocatorIS2_EEE9__end_capB7v160006Ev, symObjAddr: 0x3A9C, symBinAddr: 0x100005064, symSize: 0x28 }
  - { offsetInCU: 0xCE91, offset: 0xCE91, size: 0x8, addend: 0x0, symName: __ZNKSt3__117__compressed_pairIPP4nodeRNS_9allocatorIS2_EEE5firstB7v160006Ev, symObjAddr: 0x3AC4, symBinAddr: 0x10000508C, symSize: 0x24 }
  - { offsetInCU: 0xCEB6, offset: 0xCEB6, size: 0x8, addend: 0x0, symName: __ZNSt3__16vectorIP4nodeNS_9allocatorIS2_EEE11__make_iterB7v160006EPS2_, symObjAddr: 0x3AE8, symBinAddr: 0x1000050B0, symSize: 0x34 }
  - { offsetInCU: 0xCEEA, offset: 0xCEEA, size: 0x8, addend: 0x0, symName: __ZNSt3__111__wrap_iterIPP4nodeEC1B7v160006EPKvS3_, symObjAddr: 0x3B1C, symBinAddr: 0x1000050E4, symSize: 0x3C }
  - { offsetInCU: 0xCF2F, offset: 0xCF2F, size: 0x8, addend: 0x0, symName: __ZNSt3__111__wrap_iterIPP4nodeEC2B7v160006EPKvS3_, symObjAddr: 0x3B58, symBinAddr: 0x100005120, symSize: 0x24 }
  - { offsetInCU: 0xCF74, offset: 0xCF74, size: 0x8, addend: 0x0, symName: __ZNKSt3__111__wrap_iterIPP4nodeEdeB7v160006Ev, symObjAddr: 0x3BB0, symBinAddr: 0x100005178, symSize: 0x18 }
  - { offsetInCU: 0xCF99, offset: 0xCF99, size: 0x8, addend: 0x0, symName: __ZNSt3__111__wrap_iterIPP4nodeEppB7v160006Ev, symObjAddr: 0x3BC8, symBinAddr: 0x100005190, symSize: 0x20 }
  - { offsetInCU: 0xCFBE, offset: 0xCFBE, size: 0x8, addend: 0x0, symName: __ZNSt3__111char_traitsIcE6lengthEPKc, symObjAddr: 0x3DD4, symBinAddr: 0x10000539C, symSize: 0x34 }
  - { offsetInCU: 0xCFFF, offset: 0xCFFF, size: 0x8, addend: 0x0, symName: __ZNKSt3__113basic_ostreamIcNS_11char_traitsIcEEE6sentrycvbB7v160006Ev, symObjAddr: 0x3E08, symBinAddr: 0x1000053D0, symSize: 0x1C }
  - { offsetInCU: 0xD024, offset: 0xD024, size: 0x8, addend: 0x0, symName: __ZNSt3__119ostreambuf_iteratorIcNS_11char_traitsIcEEEC1B7v160006ERNS_13basic_ostreamIcS2_EE, symObjAddr: 0x4064, symBinAddr: 0x10000562C, symSize: 0x34 }
  - { offsetInCU: 0xD05B, offset: 0xD05B, size: 0x8, addend: 0x0, symName: __ZNKSt3__18ios_base5flagsB7v160006Ev, symObjAddr: 0x4098, symBinAddr: 0x100005660, symSize: 0x18 }
  - { offsetInCU: 0xD081, offset: 0xD081, size: 0x8, addend: 0x0, symName: __ZNKSt3__19basic_iosIcNS_11char_traitsIcEEE4fillB7v160006Ev, symObjAddr: 0x40B0, symBinAddr: 0x100005678, symSize: 0x64 }
  - { offsetInCU: 0xD0A8, offset: 0xD0A8, size: 0x8, addend: 0x0, symName: __ZNKSt3__119ostreambuf_iteratorIcNS_11char_traitsIcEEE6failedB7v160006Ev, symObjAddr: 0x4114, symBinAddr: 0x1000056DC, symSize: 0x24 }
  - { offsetInCU: 0xD0CD, offset: 0xD0CD, size: 0x8, addend: 0x0, symName: __ZNSt3__19basic_iosIcNS_11char_traitsIcEEE8setstateB7v160006Ej, symObjAddr: 0x4138, symBinAddr: 0x100005700, symSize: 0x2C }
  - { offsetInCU: 0xD101, offset: 0xD101, size: 0x8, addend: 0x0, symName: __ZNKSt3__18ios_base5widthB7v160006Ev, symObjAddr: 0x4164, symBinAddr: 0x10000572C, symSize: 0x18 }
  - { offsetInCU: 0xD128, offset: 0xD128, size: 0x8, addend: 0x0, symName: __ZNSt3__115basic_streambufIcNS_11char_traitsIcEEE5sputnB7v160006EPKcl, symObjAddr: 0x417C, symBinAddr: 0x100005744, symSize: 0x3C }
  - { offsetInCU: 0xD169, offset: 0xD169, size: 0x8, addend: 0x0, symName: __ZNSt3__112basic_stringIcNS_11char_traitsIcEENS_9allocatorIcEEEC1B7v160006Emc, symObjAddr: 0x41B8, symBinAddr: 0x100005780, symSize: 0x3C }
  - { offsetInCU: 0xD1B0, offset: 0xD1B0, size: 0x8, addend: 0x0, symName: __ZNKSt3__112basic_stringIcNS_11char_traitsIcEENS_9allocatorIcEEE4dataB7v160006Ev, symObjAddr: 0x41F4, symBinAddr: 0x1000057BC, symSize: 0x28 }
  - { offsetInCU: 0xD1D5, offset: 0xD1D5, size: 0x8, addend: 0x0, symName: __ZNSt3__18ios_base5widthB7v160006El, symObjAddr: 0x421C, symBinAddr: 0x1000057E4, symSize: 0x2C }
  - { offsetInCU: 0xD21A, offset: 0xD21A, size: 0x8, addend: 0x0, symName: __ZNSt3__112basic_stringIcNS_11char_traitsIcEENS_9allocatorIcEEEC2B7v160006Emc, symObjAddr: 0x4248, symBinAddr: 0x100005810, symSize: 0x54 }
  - { offsetInCU: 0xD261, offset: 0xD261, size: 0x8, addend: 0x0, symName: __ZNSt3__117__compressed_pairINS_12basic_stringIcNS_11char_traitsIcEENS_9allocatorIcEEE5__repES5_EC1B7v160006INS_18__default_init_tagESA_EEOT_OT0_, symObjAddr: 0x429C, symBinAddr: 0x100005864, symSize: 0x3C }
  - { offsetInCU: 0xD2B8, offset: 0xD2B8, size: 0x8, addend: 0x0, symName: __ZNSt3__117__compressed_pairINS_12basic_stringIcNS_11char_traitsIcEENS_9allocatorIcEEE5__repES5_EC2B7v160006INS_18__default_init_tagESA_EEOT_OT0_, symObjAddr: 0x42E8, symBinAddr: 0x1000058B0, symSize: 0x3C }
  - { offsetInCU: 0xD30F, offset: 0xD30F, size: 0x8, addend: 0x0, symName: __ZNSt3__122__compressed_pair_elemINS_12basic_stringIcNS_11char_traitsIcEENS_9allocatorIcEEE5__repELi0ELb0EEC2B7v160006ENS_18__default_init_tagE, symObjAddr: 0x4324, symBinAddr: 0x1000058EC, symSize: 0x14 }
  - { offsetInCU: 0xD343, offset: 0xD343, size: 0x8, addend: 0x0, symName: __ZNSt3__122__compressed_pair_elemINS_9allocatorIcEELi1ELb1EEC2B7v160006ENS_18__default_init_tagE, symObjAddr: 0x4338, symBinAddr: 0x100005900, symSize: 0x2C }
  - { offsetInCU: 0xD377, offset: 0xD377, size: 0x8, addend: 0x0, symName: __ZNSt3__19allocatorIcEC2B7v160006Ev, symObjAddr: 0x4364, symBinAddr: 0x10000592C, symSize: 0x2C }
  - { offsetInCU: 0xD3A0, offset: 0xD3A0, size: 0x8, addend: 0x0, symName: __ZNSt3__116__non_trivial_ifILb1ENS_9allocatorIcEEEC2B7v160006Ev, symObjAddr: 0x4390, symBinAddr: 0x100005958, symSize: 0x14 }
  - { offsetInCU: 0xD3C9, offset: 0xD3C9, size: 0x8, addend: 0x0, symName: __ZNKSt3__112basic_stringIcNS_11char_traitsIcEENS_9allocatorIcEEE13__get_pointerB7v160006Ev, symObjAddr: 0x43B8, symBinAddr: 0x100005980, symSize: 0x54 }
  - { offsetInCU: 0xD3EE, offset: 0xD3EE, size: 0x8, addend: 0x0, symName: __ZNKSt3__112basic_stringIcNS_11char_traitsIcEENS_9allocatorIcEEE9__is_longB7v160006Ev, symObjAddr: 0x440C, symBinAddr: 0x1000059D4, symSize: 0x38 }
  - { offsetInCU: 0xD413, offset: 0xD413, size: 0x8, addend: 0x0, symName: __ZNKSt3__112basic_stringIcNS_11char_traitsIcEENS_9allocatorIcEEE18__get_long_pointerB7v160006Ev, symObjAddr: 0x4444, symBinAddr: 0x100005A0C, symSize: 0x28 }
  - { offsetInCU: 0xD438, offset: 0xD438, size: 0x8, addend: 0x0, symName: __ZNKSt3__112basic_stringIcNS_11char_traitsIcEENS_9allocatorIcEEE19__get_short_pointerB7v160006Ev, symObjAddr: 0x446C, symBinAddr: 0x100005A34, symSize: 0x28 }
  - { offsetInCU: 0xD45D, offset: 0xD45D, size: 0x8, addend: 0x0, symName: __ZNKSt3__117__compressed_pairINS_12basic_stringIcNS_11char_traitsIcEENS_9allocatorIcEEE5__repES5_E5firstB7v160006Ev, symObjAddr: 0x4494, symBinAddr: 0x100005A5C, symSize: 0x24 }
  - { offsetInCU: 0xD482, offset: 0xD482, size: 0x8, addend: 0x0, symName: __ZNKSt3__122__compressed_pair_elemINS_12basic_stringIcNS_11char_traitsIcEENS_9allocatorIcEEE5__repELi0ELb0EE5__getB7v160006Ev, symObjAddr: 0x44B8, symBinAddr: 0x100005A80, symSize: 0x14 }
  - { offsetInCU: 0xD4A7, offset: 0xD4A7, size: 0x8, addend: 0x0, symName: __ZNSt3__114pointer_traitsIPKcE10pointer_toB7v160006ERS1_, symObjAddr: 0x44CC, symBinAddr: 0x100005A94, symSize: 0x14 }
  - { offsetInCU: 0xD4CA, offset: 0xD4CA, size: 0x8, addend: 0x0, symName: __ZNSt3__119ostreambuf_iteratorIcNS_11char_traitsIcEEEC2B7v160006ERNS_13basic_ostreamIcS2_EE, symObjAddr: 0x44E0, symBinAddr: 0x100005AA8, symSize: 0x54 }
  - { offsetInCU: 0xD500, offset: 0xD500, size: 0x8, addend: 0x0, symName: __ZNKSt3__19basic_iosIcNS_11char_traitsIcEEE5rdbufB7v160006Ev, symObjAddr: 0x4534, symBinAddr: 0x100005AFC, symSize: 0x24 }
  - { offsetInCU: 0xD527, offset: 0xD527, size: 0x8, addend: 0x0, symName: __ZNKSt3__18ios_base5rdbufB7v160006Ev, symObjAddr: 0x4558, symBinAddr: 0x100005B20, symSize: 0x18 }
  - { offsetInCU: 0xD54C, offset: 0xD54C, size: 0x8, addend: 0x0, symName: __ZNSt3__111char_traitsIcE11eq_int_typeEii, symObjAddr: 0x4570, symBinAddr: 0x100005B38, symSize: 0x28 }
  - { offsetInCU: 0xD57D, offset: 0xD57D, size: 0x8, addend: 0x0, symName: __ZNSt3__111char_traitsIcE3eofEv, symObjAddr: 0x4598, symBinAddr: 0x100005B60, symSize: 0x8 }
  - { offsetInCU: 0xD590, offset: 0xD590, size: 0x8, addend: 0x0, symName: __ZNKSt3__19basic_iosIcNS_11char_traitsIcEEE5widenB7v160006Ec, symObjAddr: 0x45A0, symBinAddr: 0x100005B68, symSize: 0x84 }
  - { offsetInCU: 0xD5FD, offset: 0xD5FD, size: 0x8, addend: 0x0, symName: __ZNKSt3__15ctypeIcE5widenB7v160006Ec, symObjAddr: 0x4650, symBinAddr: 0x100005C18, symSize: 0x38 }
  - { offsetInCU: 0xD630, offset: 0xD630, size: 0x8, addend: 0x0, symName: __ZNSt3__18ios_base8setstateB7v160006Ej, symObjAddr: 0x4688, symBinAddr: 0x100005C50, symSize: 0x34 }
  - { offsetInCU: 0x35B1, offset: 0x10CF7, size: 0x8, addend: 0x0, symName: __ZNSt3__111__introsortINS_17_ClassicAlgPolicyERPFbP6entityS3_EPS3_EEvT1_S8_T0_NS_15iterator_traitsIS8_E15difference_typeE, symObjAddr: 0x68DC, symBinAddr: 0x10000B6E4, symSize: 0x730 }
  - { offsetInCU: 0x3710, offset: 0x10E56, size: 0x8, addend: 0x0, symName: __ZNSt3__118__insertion_sort_3B7v160006INS_17_ClassicAlgPolicyERPFbP6entityS3_EPS3_EEvT1_S8_T0_, symObjAddr: 0x7140, symBinAddr: 0x10000BF48, symSize: 0x158 }
  - { offsetInCU: 0x37E5, offset: 0x10F2B, size: 0x8, addend: 0x0, symName: __ZNSt3__111__sift_downB7v160006INS_17_ClassicAlgPolicyERPFbP6entityS3_EPS3_EEvT1_OT0_NS_15iterator_traitsIS8_E15difference_typeES8_, symObjAddr: 0x7BE4, symBinAddr: 0x10000C9EC, symSize: 0x230 }
  - { offsetInCU: 0x3893, offset: 0x10FD9, size: 0x8, addend: 0x0, symName: __ZNSt3__117__floyd_sift_downB7v160006INS_17_ClassicAlgPolicyERPFbP6entityS3_EPS3_EET1_S8_OT0_NS_15iterator_traitsIS8_E15difference_typeE, symObjAddr: 0x7F98, symBinAddr: 0x10000CDA0, symSize: 0x108 }
  - { offsetInCU: 0x392B, offset: 0x11071, size: 0x8, addend: 0x0, symName: __ZNSt3__127__insertion_sort_incompleteIRPFbP6entityS2_EPS2_EEbT0_S7_T_, symObjAddr: 0x7500, symBinAddr: 0x10000C308, symSize: 0x330 }
  - { offsetInCU: 0x4EEF, offset: 0x12635, size: 0x8, addend: 0x0, symName: __ZNSt3__14sortB7v160006INS_11__wrap_iterIPP6entityEEPFbS3_S3_EEEvT_S8_T0_, symObjAddr: 0x1E80, symBinAddr: 0x100007AE0, symSize: 0x48 }
  - { offsetInCU: 0x4F49, offset: 0x1268F, size: 0x8, addend: 0x0, symName: __ZNSt3__119__debug_db_insert_cB7v160006INS_6vectorIP6entityNS_9allocatorIS3_EEEEEEvPT_, symObjAddr: 0x1FEC, symBinAddr: 0x100007C1C, symSize: 0x10 }
  - { offsetInCU: 0x4F7A, offset: 0x126C0, size: 0x8, addend: 0x0, symName: __ZNSt3__112__to_addressB7v160006IP6entityEEPT_S4_, symObjAddr: 0x2324, symBinAddr: 0x100007F54, symSize: 0x14 }
  - { offsetInCU: 0x4FAF, offset: 0x126F5, size: 0x8, addend: 0x0, symName: __ZNSt3__119__allocate_at_leastB7v160006INS_9allocatorIP6entityEEEENS_19__allocation_resultINS_16allocator_traitsIT_E7pointerEEERS7_m, symObjAddr: 0x2B5C, symBinAddr: 0x100008558, symSize: 0x40 }
  - { offsetInCU: 0x4FF2, offset: 0x12738, size: 0x8, addend: 0x0, symName: __ZNSt3__142__uninitialized_allocator_move_if_noexceptB7v160006INS_9allocatorIP6entityEENS_16reverse_iteratorIPS3_EES7_S3_vEET1_RT_T0_SB_S8_, symObjAddr: 0x2E48, symBinAddr: 0x1000087C4, symSize: 0x78 }
  - { offsetInCU: 0x506F, offset: 0x127B5, size: 0x8, addend: 0x0, symName: __ZNSt3__14swapB7v160006IPP6entityEENS_9enable_ifIXaasr21is_move_constructibleIT_EE5valuesr18is_move_assignableIS5_EE5valueEvE4typeERS5_S8_, symObjAddr: 0x2F0C, symBinAddr: 0x100008888, symSize: 0x3C }
  - { offsetInCU: 0x50C0, offset: 0x12806, size: 0x8, addend: 0x0, symName: __ZNSt3__125__debug_db_invalidate_allB7v160006INS_6vectorIP6entityNS_9allocatorIS3_EEEEEEvPT_, symObjAddr: 0x2FF4, symBinAddr: 0x100008970, symSize: 0x10 }
  - { offsetInCU: 0x50F1, offset: 0x12837, size: 0x8, addend: 0x0, symName: __ZNSt3__14moveB7v160006INS_16reverse_iteratorIPP6entityEES5_EET0_T_S7_S6_, symObjAddr: 0x304C, symBinAddr: 0x1000089C8, symSize: 0x78 }
  - { offsetInCU: 0x514B, offset: 0x12891, size: 0x8, addend: 0x0, symName: __ZNSt3__16__moveB7v160006INS_17_ClassicAlgPolicyENS_16reverse_iteratorIPP6entityEES6_S6_EENS_4pairIT0_T2_EES8_T1_S9_, symObjAddr: 0x30C4, symBinAddr: 0x100008A40, symSize: 0x64 }
  - { offsetInCU: 0x51B7, offset: 0x128FD, size: 0x8, addend: 0x0, symName: __ZNSt3__123__dispatch_copy_or_moveB7v160006INS_17_ClassicAlgPolicyENS_11__move_loopIS1_EENS_14__move_trivialENS_16reverse_iteratorIPP6entityEES9_S9_EENS_4pairIT2_T4_EESB_T3_SC_, symObjAddr: 0x3128, symBinAddr: 0x100008AA4, symSize: 0x64 }
  - { offsetInCU: 0x5235, offset: 0x1297B, size: 0x8, addend: 0x0, symName: __ZNSt3__121__unwrap_and_dispatchB7v160006INS_10__overloadINS_11__move_loopINS_17_ClassicAlgPolicyEEENS_14__move_trivialEEENS_16reverse_iteratorIPP6entityEESB_SB_Li0EEENS_4pairIT0_T2_EESD_T1_SE_, symObjAddr: 0x318C, symBinAddr: 0x100008B08, symSize: 0x12C }
  - { offsetInCU: 0x52C5, offset: 0x12A0B, size: 0x8, addend: 0x0, symName: __ZNSt3__114__unwrap_rangeB7v160006INS_16reverse_iteratorIPP6entityEES5_EENS_4pairIT0_S7_EET_S9_, symObjAddr: 0x32B8, symBinAddr: 0x100008C34, symSize: 0x84 }
  - { offsetInCU: 0x5476, offset: 0x12BBC, size: 0x8, addend: 0x0, symName: __ZNSt3__113__unwrap_iterB7v160006INS_16reverse_iteratorIPP6entityEENS_18__unwrap_iter_implIS5_Lb0EEELi0EEEDTclsrT0_8__unwrapclsr3stdE7declvalIT_EEEES9_, symObjAddr: 0x33DC, symBinAddr: 0x100008D58, symSize: 0x44 }
  - { offsetInCU: 0x54BA, offset: 0x12C00, size: 0x8, addend: 0x0, symName: __ZNSt3__19make_pairB7v160006INS_16reverse_iteratorIPP6entityEES5_EENS_4pairINS_18__unwrap_ref_decayIT_E4typeENS7_IT0_E4typeEEEOS8_OSB_, symObjAddr: 0x3420, symBinAddr: 0x100008D9C, symSize: 0x38 }
  - { offsetInCU: 0x5509, offset: 0x12C4F, size: 0x8, addend: 0x0, symName: __ZNSt3__114__rewrap_rangeB7v160006INS_16reverse_iteratorIPP6entityEES5_EET_S6_T0_, symObjAddr: 0x3458, symBinAddr: 0x100008DD4, symSize: 0x5C }
  - { offsetInCU: 0x5555, offset: 0x12C9B, size: 0x8, addend: 0x0, symName: __ZNSt3__113__rewrap_iterB7v160006INS_16reverse_iteratorIPP6entityEES5_NS_18__unwrap_iter_implIS5_Lb0EEEEET_S8_T0_, symObjAddr: 0x34B4, symBinAddr: 0x100008E30, symSize: 0x74 }
  - { offsetInCU: 0x55AA, offset: 0x12CF0, size: 0x8, addend: 0x0, symName: __ZNSt3__1neB7v160006IPP6entityS3_EEbRKNS_16reverse_iteratorIT_EERKNS4_IT0_EE, symObjAddr: 0x3528, symBinAddr: 0x100008EA4, symSize: 0x48 }
  - { offsetInCU: 0x5759, offset: 0x12E9F, size: 0x8, addend: 0x0, symName: __ZNSt3__1miB7v160006IPKP6entityS4_EEDTmicldtfp_4baseEcldtfp0_4baseEERKNS_11__wrap_iterIT_EERKNS6_IT0_EE, symObjAddr: 0x3AA4, symBinAddr: 0x1000093A4, symSize: 0x48 }
  - { offsetInCU: 0x57A5, offset: 0x12EEB, size: 0x8, addend: 0x0, symName: __ZNSt3__14moveB7v160006IPP6entityS3_EET0_T_S5_S4_, symObjAddr: 0x3B78, symBinAddr: 0x100009478, symSize: 0x40 }
  - { offsetInCU: 0x57FF, offset: 0x12F45, size: 0x8, addend: 0x0, symName: __ZNSt3__16__moveB7v160006INS_17_ClassicAlgPolicyEPP6entityS4_S4_EENS_4pairIT0_T2_EES6_T1_S7_, symObjAddr: 0x3DE8, symBinAddr: 0x1000096E8, symSize: 0x44 }
  - { offsetInCU: 0x586B, offset: 0x12FB1, size: 0x8, addend: 0x0, symName: __ZNSt3__123__dispatch_copy_or_moveB7v160006INS_17_ClassicAlgPolicyENS_11__move_loopIS1_EENS_14__move_trivialEPP6entityS7_S7_EENS_4pairIT2_T4_EES9_T3_SA_, symObjAddr: 0x3E2C, symBinAddr: 0x10000972C, symSize: 0x44 }
  - { offsetInCU: 0x58E9, offset: 0x1302F, size: 0x8, addend: 0x0, symName: __ZNSt3__121__unwrap_and_dispatchB7v160006INS_10__overloadINS_11__move_loopINS_17_ClassicAlgPolicyEEENS_14__move_trivialEEEPP6entityS9_S9_Li0EEENS_4pairIT0_T2_EESB_T1_SC_, symObjAddr: 0x3E70, symBinAddr: 0x100009770, symSize: 0xB4 }
  - { offsetInCU: 0x5977, offset: 0x130BD, size: 0x8, addend: 0x0, symName: __ZNSt3__114__unwrap_rangeB7v160006IPP6entityS3_EENS_4pairIT0_S5_EET_S7_, symObjAddr: 0x3F24, symBinAddr: 0x100009824, symSize: 0x60 }
  - { offsetInCU: 0x5B0C, offset: 0x13252, size: 0x8, addend: 0x0, symName: __ZNSt3__113__unwrap_iterB7v160006IPP6entityNS_18__unwrap_iter_implIS3_Lb1EEELi0EEEDTclsrT0_8__unwrapclsr3stdE7declvalIT_EEEES7_, symObjAddr: 0x3FCC, symBinAddr: 0x1000098CC, symSize: 0x24 }
  - { offsetInCU: 0x5B50, offset: 0x13296, size: 0x8, addend: 0x0, symName: __ZNSt3__19make_pairB7v160006IPP6entityS3_EENS_4pairINS_18__unwrap_ref_decayIT_E4typeENS5_IT0_E4typeEEEOS6_OS9_, symObjAddr: 0x3FF0, symBinAddr: 0x1000098F0, symSize: 0x38 }
  - { offsetInCU: 0x5B9F, offset: 0x132E5, size: 0x8, addend: 0x0, symName: __ZNSt3__114__rewrap_rangeB7v160006IPP6entityS3_EET_S4_T0_, symObjAddr: 0x4028, symBinAddr: 0x100009928, symSize: 0x2C }
  - { offsetInCU: 0x5BEB, offset: 0x13331, size: 0x8, addend: 0x0, symName: __ZNSt3__113__rewrap_iterB7v160006IPP6entityS3_NS_18__unwrap_iter_implIS3_Lb1EEEEET_S6_T0_, symObjAddr: 0x4054, symBinAddr: 0x100009954, symSize: 0x3C }
  - { offsetInCU: 0x5C40, offset: 0x13386, size: 0x8, addend: 0x0, symName: __ZNSt3__119__copy_trivial_implB7v160006IP6entityS2_EENS_4pairIPT_PT0_EES5_S5_S7_, symObjAddr: 0x4090, symBinAddr: 0x100009990, symSize: 0x84 }
  - { offsetInCU: 0x5CA8, offset: 0x133EE, size: 0x8, addend: 0x0, symName: __ZNSt3__19make_pairB7v160006IRPP6entityS3_EENS_4pairINS_18__unwrap_ref_decayIT_E4typeENS6_IT0_E4typeEEEOS7_OSA_, symObjAddr: 0x4114, symBinAddr: 0x100009A14, symSize: 0x38 }
  - { offsetInCU: 0x5D4A, offset: 0x13490, size: 0x8, addend: 0x0, symName: __ZNSt3__119__debug_db_insert_cB7v160006INS_6vectorIiNS_9allocatorIiEEEEEEvPT_, symObjAddr: 0x438C, symBinAddr: 0x100009C8C, symSize: 0x10 }
  - { offsetInCU: 0x5D7B, offset: 0x134C1, size: 0x8, addend: 0x0, symName: __ZNSt3__118__debug_db_erase_cB7v160006INS_6vectorIiNS_9allocatorIiEEEEEEvPT_, symObjAddr: 0x4650, symBinAddr: 0x100009F50, symSize: 0x10 }
  - { offsetInCU: 0x5DAC, offset: 0x134F2, size: 0x8, addend: 0x0, symName: __ZNSt3__112__to_addressB7v160006IiEEPT_S2_, symObjAddr: 0x476C, symBinAddr: 0x10000A06C, symSize: 0x14 }
  - { offsetInCU: 0x5DE1, offset: 0x13527, size: 0x8, addend: 0x0, symName: __ZNSt3__119__allocate_at_leastB7v160006INS_9allocatorIiEEEENS_19__allocation_resultINS_16allocator_traitsIT_E7pointerEEERS5_m, symObjAddr: 0x5074, symBinAddr: 0x10000A974, symSize: 0x40 }
  - { offsetInCU: 0x5E24, offset: 0x1356A, size: 0x8, addend: 0x0, symName: __ZNSt3__142__uninitialized_allocator_move_if_noexceptB7v160006INS_9allocatorIiEENS_16reverse_iteratorIPiEES5_ivEET1_RT_T0_S9_S6_, symObjAddr: 0x5228, symBinAddr: 0x10000AB28, symSize: 0x78 }
  - { offsetInCU: 0x5EA1, offset: 0x135E7, size: 0x8, addend: 0x0, symName: __ZNSt3__14swapB7v160006IPiEENS_9enable_ifIXaasr21is_move_constructibleIT_EE5valuesr18is_move_assignableIS3_EE5valueEvE4typeERS3_S6_, symObjAddr: 0x52EC, symBinAddr: 0x10000ABEC, symSize: 0x3C }
  - { offsetInCU: 0x5EF2, offset: 0x13638, size: 0x8, addend: 0x0, symName: __ZNSt3__125__debug_db_invalidate_allB7v160006INS_6vectorIiNS_9allocatorIiEEEEEEvPT_, symObjAddr: 0x53D4, symBinAddr: 0x10000ACD4, symSize: 0x10 }
  - { offsetInCU: 0x5F23, offset: 0x13669, size: 0x8, addend: 0x0, symName: __ZNSt3__14moveB7v160006INS_16reverse_iteratorIPiEES3_EET0_T_S5_S4_, symObjAddr: 0x53E4, symBinAddr: 0x10000ACE4, symSize: 0x78 }
  - { offsetInCU: 0x5F7D, offset: 0x136C3, size: 0x8, addend: 0x0, symName: __ZNSt3__16__moveB7v160006INS_17_ClassicAlgPolicyENS_16reverse_iteratorIPiEES4_S4_EENS_4pairIT0_T2_EES6_T1_S7_, symObjAddr: 0x545C, symBinAddr: 0x10000AD5C, symSize: 0x64 }
  - { offsetInCU: 0x5FE9, offset: 0x1372F, size: 0x8, addend: 0x0, symName: __ZNSt3__123__dispatch_copy_or_moveB7v160006INS_17_ClassicAlgPolicyENS_11__move_loopIS1_EENS_14__move_trivialENS_16reverse_iteratorIPiEES7_S7_EENS_4pairIT2_T4_EES9_T3_SA_, symObjAddr: 0x54C0, symBinAddr: 0x10000ADC0, symSize: 0x64 }
  - { offsetInCU: 0x6067, offset: 0x137AD, size: 0x8, addend: 0x0, symName: __ZNSt3__121__unwrap_and_dispatchB7v160006INS_10__overloadINS_11__move_loopINS_17_ClassicAlgPolicyEEENS_14__move_trivialEEENS_16reverse_iteratorIPiEES9_S9_Li0EEENS_4pairIT0_T2_EESB_T1_SC_, symObjAddr: 0x5524, symBinAddr: 0x10000AE24, symSize: 0x12C }
  - { offsetInCU: 0x60F7, offset: 0x1383D, size: 0x8, addend: 0x0, symName: __ZNSt3__114__unwrap_rangeB7v160006INS_16reverse_iteratorIPiEES3_EENS_4pairIT0_S5_EET_S7_, symObjAddr: 0x5650, symBinAddr: 0x10000AF50, symSize: 0x84 }
  - { offsetInCU: 0x6217, offset: 0x1395D, size: 0x8, addend: 0x0, symName: __ZNSt3__113__unwrap_iterB7v160006INS_16reverse_iteratorIPiEENS_18__unwrap_iter_implIS3_Lb0EEELi0EEEDTclsrT0_8__unwrapclsr3stdE7declvalIT_EEEES7_, symObjAddr: 0x5774, symBinAddr: 0x10000B074, symSize: 0x44 }
  - { offsetInCU: 0x625B, offset: 0x139A1, size: 0x8, addend: 0x0, symName: __ZNSt3__19make_pairB7v160006INS_16reverse_iteratorIPiEES3_EENS_4pairINS_18__unwrap_ref_decayIT_E4typeENS5_IT0_E4typeEEEOS6_OS9_, symObjAddr: 0x57B8, symBinAddr: 0x10000B0B8, symSize: 0x38 }
  - { offsetInCU: 0x62AA, offset: 0x139F0, size: 0x8, addend: 0x0, symName: __ZNSt3__114__rewrap_rangeB7v160006INS_16reverse_iteratorIPiEES3_EET_S4_T0_, symObjAddr: 0x57F0, symBinAddr: 0x10000B0F0, symSize: 0x5C }
  - { offsetInCU: 0x62F6, offset: 0x13A3C, size: 0x8, addend: 0x0, symName: __ZNSt3__113__rewrap_iterB7v160006INS_16reverse_iteratorIPiEES3_NS_18__unwrap_iter_implIS3_Lb0EEEEET_S6_T0_, symObjAddr: 0x584C, symBinAddr: 0x10000B14C, symSize: 0x74 }
  - { offsetInCU: 0x634B, offset: 0x13A91, size: 0x8, addend: 0x0, symName: __ZNSt3__1neB7v160006IPiS1_EEbRKNS_16reverse_iteratorIT_EERKNS2_IT0_EE, symObjAddr: 0x58C0, symBinAddr: 0x10000B1C0, symSize: 0x48 }
  - { offsetInCU: 0x6403, offset: 0x13B49, size: 0x8, addend: 0x0, symName: __ZNSt3__111__sort_implB7v160006INS_17_ClassicAlgPolicyENS_11__wrap_iterIPP6entityEEPFbS4_S4_EEEvT0_S9_RT1_, symObjAddr: 0x6748, symBinAddr: 0x10000B550, symSize: 0x84 }
  - { offsetInCU: 0x64AB, offset: 0x13BF1, size: 0x8, addend: 0x0, symName: __ZNSt3__123__debug_randomize_rangeB7v160006INS_17_ClassicAlgPolicyENS_11__wrap_iterIPP6entityEES6_EEvT0_T1_, symObjAddr: 0x67CC, symBinAddr: 0x10000B5D4, symSize: 0x14 }
  - { offsetInCU: 0x64FC, offset: 0x13C42, size: 0x8, addend: 0x0, symName: __ZNSt3__16__sortIRPFbP6entityS2_EPS2_EEvT0_S7_T_, symObjAddr: 0x67E0, symBinAddr: 0x10000B5E8, symSize: 0x68 }
  - { offsetInCU: 0x658C, offset: 0x13CD2, size: 0x8, addend: 0x0, symName: __ZNSt3__113__unwrap_iterB7v160006INS_11__wrap_iterIPP6entityEENS_18__unwrap_iter_implIS5_Lb1EEELi0EEEDTclsrT0_8__unwrapclsr3stdE7declvalIT_EEEES9_, symObjAddr: 0x6848, symBinAddr: 0x10000B650, symSize: 0x2C }
  - { offsetInCU: 0x65D0, offset: 0x13D16, size: 0x8, addend: 0x0, symName: __ZNSt3__17__log2iB7v160006IlEET_S1_, symObjAddr: 0x6874, symBinAddr: 0x10000B67C, symSize: 0x54 }
  - { offsetInCU: 0x663A, offset: 0x13D80, size: 0x8, addend: 0x0, symName: __ZNSt3__112__libcpp_clzB7v160006Em, symObjAddr: 0x7024, symBinAddr: 0x10000BE2C, symSize: 0x1C }
  - { offsetInCU: 0x6666, offset: 0x13DAC, size: 0x8, addend: 0x0, symName: __ZNSt3__124__sort3_maybe_branchlessB7v160006INS_17_ClassicAlgPolicyERPFbP6entityS3_EPS3_EENS_9enable_ifIXntsr21__use_branchless_sortIT0_T1_EE5valueEvE4typeESA_SA_SA_S9_, symObjAddr: 0x7074, symBinAddr: 0x10000BE7C, symSize: 0x3C }
  - { offsetInCU: 0x66D7, offset: 0x13E1D, size: 0x8, addend: 0x0, symName: __ZNSt3__124__sort4_maybe_branchlessB7v160006INS_17_ClassicAlgPolicyERPFbP6entityS3_EPS3_EENS_9enable_ifIXntsr21__use_branchless_sortIT0_T1_EE5valueEvE4typeESA_SA_SA_SA_S9_, symObjAddr: 0x70B0, symBinAddr: 0x10000BEB8, symSize: 0x44 }
  - { offsetInCU: 0x675C, offset: 0x13EA2, size: 0x8, addend: 0x0, symName: __ZNSt3__124__sort5_maybe_branchlessB7v160006INS_17_ClassicAlgPolicyERPFbP6entityS3_EPS3_EENS_9enable_ifIXntsr21__use_branchless_sortIT0_T1_EE5valueEvE4typeESA_SA_SA_SA_SA_S9_, symObjAddr: 0x70F4, symBinAddr: 0x10000BEFC, symSize: 0x4C }
  - { offsetInCU: 0x67F0, offset: 0x13F36, size: 0x8, addend: 0x0, symName: __ZNSt3__114__partial_sortB7v160006INS_17_ClassicAlgPolicyERPFbP6entityS3_EPS3_S7_EET1_S8_S8_T2_RT0_, symObjAddr: 0x7298, symBinAddr: 0x10000C0A0, symSize: 0x94 }
  - { offsetInCU: 0x6878, offset: 0x13FBE, size: 0x8, addend: 0x0, symName: __ZNSt3__119__sort5_wrap_policyB7v160006INS_17_ClassicAlgPolicyERPFbP6entityS3_EPS3_EEjT1_S8_S8_S8_S8_T0_, symObjAddr: 0x732C, symBinAddr: 0x10000C134, symSize: 0x54 }
  - { offsetInCU: 0x691E, offset: 0x14064, size: 0x8, addend: 0x0, symName: __ZNSt3__17__sort3B7v160006INS_17_ClassicAlgPolicyERPFbP6entityS3_EPS3_EEjT1_S8_S8_T0_, symObjAddr: 0x7380, symBinAddr: 0x10000C188, symSize: 0x180 }
  - { offsetInCU: 0x699D, offset: 0x140E3, size: 0x8, addend: 0x0, symName: __ZNSt3__19iter_swapB7v160006IPP6entityS3_EEvT_T0_, symObjAddr: 0x7848, symBinAddr: 0x10000C650, symSize: 0x2C }
  - { offsetInCU: 0x69E6, offset: 0x1412C, size: 0x8, addend: 0x0, symName: __ZNSt3__14swapB7v160006IP6entityEENS_9enable_ifIXaasr21is_move_constructibleIT_EE5valuesr18is_move_assignableIS4_EE5valueEvE4typeERS4_S7_, symObjAddr: 0x7874, symBinAddr: 0x10000C67C, symSize: 0x3C }
  - { offsetInCU: 0x6A37, offset: 0x1417D, size: 0x8, addend: 0x0, symName: __ZNSt3__17__sort4B7v160006INS_17_ClassicAlgPolicyERPFbP6entityS3_EPS3_EEjT1_S8_S8_S8_T0_, symObjAddr: 0x78B0, symBinAddr: 0x10000C6B8, symSize: 0x108 }
  - { offsetInCU: 0x6AC4, offset: 0x1420A, size: 0x8, addend: 0x0, symName: __ZNSt3__123__debug_randomize_rangeB7v160006INS_17_ClassicAlgPolicyEPP6entityS4_EEvT0_T1_, symObjAddr: 0x79FC, symBinAddr: 0x10000C804, symSize: 0x14 }
  - { offsetInCU: 0x6B15, offset: 0x1425B, size: 0x8, addend: 0x0, symName: __ZNSt3__119__partial_sort_implB7v160006INS_17_ClassicAlgPolicyERPFbP6entityS3_EPS3_S7_EET1_S8_S8_T2_OT0_, symObjAddr: 0x7A10, symBinAddr: 0x10000C818, symSize: 0x11C }
  - { offsetInCU: 0x6BAB, offset: 0x142F1, size: 0x8, addend: 0x0, symName: __ZNSt3__111__make_heapB7v160006INS_17_ClassicAlgPolicyERPFbP6entityS3_EPS3_EEvT1_S8_OT0_, symObjAddr: 0x7B2C, symBinAddr: 0x10000C934, symSize: 0xB8 }
  - { offsetInCU: 0x6C4F, offset: 0x14395, size: 0x8, addend: 0x0, symName: __ZNSt3__111__sort_heapB7v160006INS_17_ClassicAlgPolicyERPFbP6entityS3_EPS3_EEvT1_S8_OT0_, symObjAddr: 0x7E14, symBinAddr: 0x10000CC1C, symSize: 0x90 }
  - { offsetInCU: 0x6CE5, offset: 0x1442B, size: 0x8, addend: 0x0, symName: __ZNSt3__110__pop_heapB7v160006INS_17_ClassicAlgPolicyEPFbP6entityS3_EPS3_EEvT1_S7_RT0_NS_15iterator_traitsIS7_E15difference_typeE, symObjAddr: 0x7EA4, symBinAddr: 0x10000CCAC, symSize: 0xF4 }
  - { offsetInCU: 0x6D97, offset: 0x144DD, size: 0x8, addend: 0x0, symName: __ZNSt3__19__sift_upB7v160006INS_17_ClassicAlgPolicyERPFbP6entityS3_EPS3_EEvT1_S8_OT0_NS_15iterator_traitsIS8_E15difference_typeE, symObjAddr: 0x80A0, symBinAddr: 0x10000CEA8, symSize: 0x130 }
  - { offsetInCU: 0x6E4A, offset: 0x14590, size: 0x8, addend: 0x0, symName: __ZNSt3__17__sort5IRPFbP6entityS2_EPS2_EEjT0_S7_S7_S7_S7_T_, symObjAddr: 0x81D0, symBinAddr: 0x10000CFD8, symSize: 0x15C }
  - { offsetInCU: 0x6F48, offset: 0x1468E, size: 0x8, addend: 0x0, symName: __ZNSt3__112__to_addressB7v160006INS_11__wrap_iterIPP6entityEEvEENS_5decayIDTclsr19__to_address_helperIT_EE6__callclsr3stdE7declvalIRKS7_EEEEE4typeES9_, symObjAddr: 0x8354, symBinAddr: 0x10000D15C, symSize: 0x24 }
  - { offsetInCU: 0x738D, offset: 0x14AD3, size: 0x8, addend: 0x0, symName: __ZNSt3__16vectorIP6entityNS_9allocatorIS2_EEE26__swap_out_circular_bufferERNS_14__split_bufferIS2_RS4_EE, symObjAddr: 0x2520, symBinAddr: 0x100008150, symSize: 0x118 }
  - { offsetInCU: 0x7572, offset: 0x14CB8, size: 0x8, addend: 0x0, symName: __ZNSt3__16vectorIiNS_9allocatorIiEEE26__swap_out_circular_bufferERNS_14__split_bufferIiRS2_EE, symObjAddr: 0x4D0C, symBinAddr: 0x10000A60C, symSize: 0x118 }
  - { offsetInCU: 0x9399, offset: 0x16ADF, size: 0x8, addend: 0x0, symName: __Z7compareP6entityS0_, symObjAddr: 0x0, symBinAddr: 0x100005CA8, symSize: 0x30 }
  - { offsetInCU: 0x93D3, offset: 0x16B19, size: 0x8, addend: 0x0, symName: __Z8compare2P6entityS0_, symObjAddr: 0x30, symBinAddr: 0x100005CD8, symSize: 0x50 }
  - { offsetInCU: 0x9734, offset: 0x16E7A, size: 0x8, addend: 0x0, symName: __ZN11allEntitiesC2Ev, symObjAddr: 0x80, symBinAddr: 0x100005D28, symSize: 0x30 }
  - { offsetInCU: 0x975F, offset: 0x16EA5, size: 0x8, addend: 0x0, symName: __ZNSt3__16vectorIP6entityNS_9allocatorIS2_EEEC1B7v160006Ev, symObjAddr: 0xB0, symBinAddr: 0x100005D58, symSize: 0x2C }
  - { offsetInCU: 0x9788, offset: 0x16ECE, size: 0x8, addend: 0x0, symName: __ZN11allEntitiesC1Ev, symObjAddr: 0xDC, symBinAddr: 0x100005D84, symSize: 0x2C }
  - { offsetInCU: 0x97B3, offset: 0x16EF9, size: 0x8, addend: 0x0, symName: __ZN11allEntities7addRectEP6entity, symObjAddr: 0x108, symBinAddr: 0x100005DB0, symSize: 0x44 }
  - { offsetInCU: 0x97E7, offset: 0x16F2D, size: 0x8, addend: 0x0, symName: __ZNSt3__16vectorIP6entityNS_9allocatorIS2_EEE9push_backB7v160006ERKS2_, symObjAddr: 0x14C, symBinAddr: 0x100005DF4, symSize: 0x6C }
  - { offsetInCU: 0x981D, offset: 0x16F63, size: 0x8, addend: 0x0, symName: __ZN11allEntities10removeRectEiP6entity, symObjAddr: 0x1B8, symBinAddr: 0x100005E60, symSize: 0xD4 }
  - { offsetInCU: 0x986E, offset: 0x16FB4, size: 0x8, addend: 0x0, symName: __ZNSt3__16vectorIP6entityNS_9allocatorIS2_EEEixB7v160006Em, symObjAddr: 0x28C, symBinAddr: 0x100005F34, symSize: 0x24 }
  - { offsetInCU: 0x98A3, offset: 0x16FE9, size: 0x8, addend: 0x0, symName: __ZNSt3__16vectorIP6entityNS_9allocatorIS2_EEE5eraseB7v160006ENS_11__wrap_iterIPKS2_EE, symObjAddr: 0x2B0, symBinAddr: 0x100005F58, symSize: 0xA4 }
  - { offsetInCU: 0x98F6, offset: 0x1703C, size: 0x8, addend: 0x0, symName: __ZNSt3__16vectorIP6entityNS_9allocatorIS2_EEE5beginB7v160006Ev, symObjAddr: 0x354, symBinAddr: 0x100005FFC, symSize: 0x30 }
  - { offsetInCU: 0x991D, offset: 0x17063, size: 0x8, addend: 0x0, symName: __ZNKSt3__111__wrap_iterIPP6entityEplB7v160006El, symObjAddr: 0x384, symBinAddr: 0x10000602C, symSize: 0x3C }
  - { offsetInCU: 0x9968, offset: 0x170AE, size: 0x8, addend: 0x0, symName: __ZNSt3__111__wrap_iterIPKP6entityEC1B7v160006IPS2_EERKNS0_IT_EEPNS_9enable_ifIXsr14is_convertibleIS8_S4_EE5valueEvE4typeE, symObjAddr: 0x3C0, symBinAddr: 0x100006068, symSize: 0x3C }
  - { offsetInCU: 0x99B3, offset: 0x170F9, size: 0x8, addend: 0x0, symName: __ZN11allEntities6renderEP12SDL_RendererP10SDL_Window, symObjAddr: 0x3FC, symBinAddr: 0x1000060A4, symSize: 0xF4 }
  - { offsetInCU: 0x9A13, offset: 0x17159, size: 0x8, addend: 0x0, symName: __ZN11allEntities7update2EP10SDL_WindowP6entitydfP8QuadTree, symObjAddr: 0x4F0, symBinAddr: 0x100006198, symSize: 0x240 }
  - { offsetInCU: 0x9AF5, offset: 0x1723B, size: 0x8, addend: 0x0, symName: __ZN11allEntities7update3EP10SDL_WindowP6entitydifP8QuadTree, symObjAddr: 0x730, symBinAddr: 0x1000063D8, symSize: 0xA78 }
  - { offsetInCU: 0x9D9E, offset: 0x174E4, size: 0x8, addend: 0x0, symName: __ZNSt3__16vectorIiNS_9allocatorIiEEEC1B7v160006Ev, symObjAddr: 0x11A8, symBinAddr: 0x100006E50, symSize: 0x2C }
  - { offsetInCU: 0x9DC7, offset: 0x1750D, size: 0x8, addend: 0x0, symName: __ZNKSt3__16vectorIP6entityNS_9allocatorIS2_EEE4sizeB7v160006Ev, symObjAddr: 0x11D4, symBinAddr: 0x100006E7C, symSize: 0x28 }
  - { offsetInCU: 0x9DEB, offset: 0x17531, size: 0x8, addend: 0x0, symName: __ZNSt3__16vectorIiNS_9allocatorIiEEE9push_backB7v160006ERKi, symObjAddr: 0x11FC, symBinAddr: 0x100006EA4, symSize: 0x6C }
  - { offsetInCU: 0x9E21, offset: 0x17567, size: 0x8, addend: 0x0, symName: __ZNKSt3__16vectorIiNS_9allocatorIiEEE4sizeB7v160006Ev, symObjAddr: 0x1268, symBinAddr: 0x100006F10, symSize: 0x28 }
  - { offsetInCU: 0x9E46, offset: 0x1758C, size: 0x8, addend: 0x0, symName: __ZNSt3__16vectorIiNS_9allocatorIiEEEixB7v160006Em, symObjAddr: 0x1290, symBinAddr: 0x100006F38, symSize: 0x24 }
  - { offsetInCU: 0x9E7C, offset: 0x175C2, size: 0x8, addend: 0x0, symName: __ZN11allEntities9barnesHutEP10SDL_WindowdfP8QuadTreeP4nodeP6entity, symObjAddr: 0x12FC, symBinAddr: 0x100006F5C, symSize: 0x4CC }
  - { offsetInCU: 0x9FAE, offset: 0x176F4, size: 0x8, addend: 0x0, symName: __ZNSt3__16vectorIiNS_9allocatorIiEEED1B7v160006Ev, symObjAddr: 0x17C8, symBinAddr: 0x100007428, symSize: 0x2C }
  - { offsetInCU: 0x9FD7, offset: 0x1771D, size: 0x8, addend: 0x0, symName: __ZN11allEntities6updateEP10SDL_WindowP6entityd, symObjAddr: 0x17F4, symBinAddr: 0x100007454, symSize: 0x68C }
  - { offsetInCU: 0xA141, offset: 0x17887, size: 0x8, addend: 0x0, symName: __ZNSt3__16vectorIP6entityNS_9allocatorIS2_EEE3endB7v160006Ev, symObjAddr: 0x1EC8, symBinAddr: 0x100007B28, symSize: 0x30 }
  - { offsetInCU: 0xA168, offset: 0x178AE, size: 0x8, addend: 0x0, symName: __Z4sqrtB7v160006f, symObjAddr: 0x1EF8, symBinAddr: 0x100007B58, symSize: 0x18 }
  - { offsetInCU: 0xA197, offset: 0x178DD, size: 0x8, addend: 0x0, symName: __Z4fabsB7v160006f, symObjAddr: 0x1F10, symBinAddr: 0x100007B70, symSize: 0x18 }
  - { offsetInCU: 0xA1C6, offset: 0x1790C, size: 0x8, addend: 0x0, symName: __ZNSt3__16vectorIP6entityNS_9allocatorIS2_EEEC2B7v160006Ev, symObjAddr: 0x1F4C, symBinAddr: 0x100007B88, symSize: 0x58 }
  - { offsetInCU: 0xA1F9, offset: 0x1793F, size: 0x8, addend: 0x0, symName: __ZNSt3__117__compressed_pairIPP6entityNS_9allocatorIS2_EEEC1B7v160006IDnNS_18__default_init_tagEEEOT_OT0_, symObjAddr: 0x1FA4, symBinAddr: 0x100007BE0, symSize: 0x3C }
  - { offsetInCU: 0xA250, offset: 0x17996, size: 0x8, addend: 0x0, symName: __ZNSt3__117__compressed_pairIPP6entityNS_9allocatorIS2_EEEC2B7v160006IDnNS_18__default_init_tagEEEOT_OT0_, symObjAddr: 0x1FFC, symBinAddr: 0x100007C2C, symSize: 0x40 }
  - { offsetInCU: 0xA2A7, offset: 0x179ED, size: 0x8, addend: 0x0, symName: __ZNSt3__122__compressed_pair_elemIPP6entityLi0ELb0EEC2B7v160006IDnvEEOT_, symObjAddr: 0x203C, symBinAddr: 0x100007C6C, symSize: 0x1C }
  - { offsetInCU: 0xA2E8, offset: 0x17A2E, size: 0x8, addend: 0x0, symName: __ZNSt3__122__compressed_pair_elemINS_9allocatorIP6entityEELi1ELb1EEC2B7v160006ENS_18__default_init_tagE, symObjAddr: 0x2058, symBinAddr: 0x100007C88, symSize: 0x2C }
  - { offsetInCU: 0xA31C, offset: 0x17A62, size: 0x8, addend: 0x0, symName: __ZNSt3__19allocatorIP6entityEC2B7v160006Ev, symObjAddr: 0x2084, symBinAddr: 0x100007CB4, symSize: 0x2C }
  - { offsetInCU: 0xA345, offset: 0x17A8B, size: 0x8, addend: 0x0, symName: __ZNSt3__116__non_trivial_ifILb1ENS_9allocatorIP6entityEEEC2B7v160006Ev, symObjAddr: 0x20B0, symBinAddr: 0x100007CE0, symSize: 0x14 }
  - { offsetInCU: 0xA36E, offset: 0x17AB4, size: 0x8, addend: 0x0, symName: __ZNSt3__16vectorIP6entityNS_9allocatorIS2_EEE9__end_capB7v160006Ev, symObjAddr: 0x20C4, symBinAddr: 0x100007CF4, symSize: 0x28 }
  - { offsetInCU: 0xA393, offset: 0x17AD9, size: 0x8, addend: 0x0, symName: __ZNSt3__16vectorIP6entityNS_9allocatorIS2_EEE22__construct_one_at_endB7v160006IJRKS2_EEEvDpOT_, symObjAddr: 0x20EC, symBinAddr: 0x100007D1C, symSize: 0x90 }
  - { offsetInCU: 0xA3E0, offset: 0x17B26, size: 0x8, addend: 0x0, symName: __ZNSt3__16vectorIP6entityNS_9allocatorIS2_EEE21__push_back_slow_pathIRKS2_EEvOT_, symObjAddr: 0x217C, symBinAddr: 0x100007DAC, symSize: 0xD8 }
  - { offsetInCU: 0xA43D, offset: 0x17B83, size: 0x8, addend: 0x0, symName: __ZNSt3__117__compressed_pairIPP6entityNS_9allocatorIS2_EEE5firstB7v160006Ev, symObjAddr: 0x2254, symBinAddr: 0x100007E84, symSize: 0x24 }
  - { offsetInCU: 0xA462, offset: 0x17BA8, size: 0x8, addend: 0x0, symName: __ZNSt3__122__compressed_pair_elemIPP6entityLi0ELb0EE5__getB7v160006Ev, symObjAddr: 0x2278, symBinAddr: 0x100007EA8, symSize: 0x14 }
  - { offsetInCU: 0xA4A0, offset: 0x17BE6, size: 0x8, addend: 0x0, symName: __ZNSt3__16vectorIP6entityNS_9allocatorIS2_EEE21_ConstructTransactionC1B7v160006ERS5_m, symObjAddr: 0x228C, symBinAddr: 0x100007EBC, symSize: 0x3C }
  - { offsetInCU: 0xA4E7, offset: 0x17C2D, size: 0x8, addend: 0x0, symName: __ZNSt3__116allocator_traitsINS_9allocatorIP6entityEEE9constructB7v160006IS3_JRKS3_EvEEvRS4_PT_DpOT0_, symObjAddr: 0x22C8, symBinAddr: 0x100007EF8, symSize: 0x34 }
  - { offsetInCU: 0xA53E, offset: 0x17C84, size: 0x8, addend: 0x0, symName: __ZNSt3__16vectorIP6entityNS_9allocatorIS2_EEE7__allocB7v160006Ev, symObjAddr: 0x22FC, symBinAddr: 0x100007F2C, symSize: 0x28 }
  - { offsetInCU: 0xA563, offset: 0x17CA9, size: 0x8, addend: 0x0, symName: __ZNSt3__16vectorIP6entityNS_9allocatorIS2_EEE21_ConstructTransactionD1B7v160006Ev, symObjAddr: 0x2338, symBinAddr: 0x100007F68, symSize: 0x2C }
  - { offsetInCU: 0xA58C, offset: 0x17CD2, size: 0x8, addend: 0x0, symName: __ZNSt3__16vectorIP6entityNS_9allocatorIS2_EEE21_ConstructTransactionC2B7v160006ERS5_m, symObjAddr: 0x2364, symBinAddr: 0x100007F94, symSize: 0x44 }
  - { offsetInCU: 0xA5D3, offset: 0x17D19, size: 0x8, addend: 0x0, symName: __ZNSt3__19allocatorIP6entityE9constructB7v160006IS2_JRKS2_EEEvPT_DpOT0_, symObjAddr: 0x23A8, symBinAddr: 0x100007FD8, symSize: 0x28 }
  - { offsetInCU: 0xA628, offset: 0x17D6E, size: 0x8, addend: 0x0, symName: __ZNSt3__117__compressed_pairIPP6entityNS_9allocatorIS2_EEE6secondB7v160006Ev, symObjAddr: 0x23D0, symBinAddr: 0x100008000, symSize: 0x24 }
  - { offsetInCU: 0xA64D, offset: 0x17D93, size: 0x8, addend: 0x0, symName: __ZNSt3__122__compressed_pair_elemINS_9allocatorIP6entityEELi1ELb1EE5__getB7v160006Ev, symObjAddr: 0x23F4, symBinAddr: 0x100008024, symSize: 0x14 }
  - { offsetInCU: 0xA672, offset: 0x17DB8, size: 0x8, addend: 0x0, symName: __ZNSt3__16vectorIP6entityNS_9allocatorIS2_EEE21_ConstructTransactionD2B7v160006Ev, symObjAddr: 0x2408, symBinAddr: 0x100008038, symSize: 0x20 }
  - { offsetInCU: 0xA69A, offset: 0x17DE0, size: 0x8, addend: 0x0, symName: __ZNKSt3__16vectorIP6entityNS_9allocatorIS2_EEE11__recommendB7v160006Em, symObjAddr: 0x2428, symBinAddr: 0x100008058, symSize: 0xB4 }
  - { offsetInCU: 0xA6EE, offset: 0x17E34, size: 0x8, addend: 0x0, symName: __ZNSt3__114__split_bufferIP6entityRNS_9allocatorIS2_EEEC1EmmS5_, symObjAddr: 0x24DC, symBinAddr: 0x10000810C, symSize: 0x44 }
  - { offsetInCU: 0xA743, offset: 0x17E89, size: 0x8, addend: 0x0, symName: __ZNSt3__114__split_bufferIP6entityRNS_9allocatorIS2_EEED1Ev, symObjAddr: 0x2638, symBinAddr: 0x100008268, symSize: 0x2C }
  - { offsetInCU: 0xA76D, offset: 0x17EB3, size: 0x8, addend: 0x0, symName: __ZNKSt3__16vectorIP6entityNS_9allocatorIS2_EEE8max_sizeEv, symObjAddr: 0x2664, symBinAddr: 0x100008294, symSize: 0x60 }
  - { offsetInCU: 0xA794, offset: 0x17EDA, size: 0x8, addend: 0x0, symName: __ZNKSt3__16vectorIP6entityNS_9allocatorIS2_EEE20__throw_length_errorB7v160006Ev, symObjAddr: 0x26C4, symBinAddr: 0x1000082F4, symSize: 0x1C }
  - { offsetInCU: 0xA7B9, offset: 0x17EFF, size: 0x8, addend: 0x0, symName: __ZNKSt3__16vectorIP6entityNS_9allocatorIS2_EEE8capacityB7v160006Ev, symObjAddr: 0x26E0, symBinAddr: 0x100008310, symSize: 0x40 }
  - { offsetInCU: 0xA7E8, offset: 0x17F2E, size: 0x8, addend: 0x0, symName: __ZNSt3__116allocator_traitsINS_9allocatorIP6entityEEE8max_sizeB7v160006IS4_vEEmRKS4_, symObjAddr: 0x2778, symBinAddr: 0x100008350, symSize: 0x24 }
  - { offsetInCU: 0xA816, offset: 0x17F5C, size: 0x8, addend: 0x0, symName: __ZNKSt3__16vectorIP6entityNS_9allocatorIS2_EEE7__allocB7v160006Ev, symObjAddr: 0x279C, symBinAddr: 0x100008374, symSize: 0x28 }
  - { offsetInCU: 0xA83B, offset: 0x17F81, size: 0x8, addend: 0x0, symName: __ZNKSt3__19allocatorIP6entityE8max_sizeB7v160006Ev, symObjAddr: 0x2860, symBinAddr: 0x10000839C, symSize: 0x14 }
  - { offsetInCU: 0xA860, offset: 0x17FA6, size: 0x8, addend: 0x0, symName: __ZNKSt3__117__compressed_pairIPP6entityNS_9allocatorIS2_EEE6secondB7v160006Ev, symObjAddr: 0x2874, symBinAddr: 0x1000083B0, symSize: 0x24 }
  - { offsetInCU: 0xA885, offset: 0x17FCB, size: 0x8, addend: 0x0, symName: __ZNKSt3__122__compressed_pair_elemINS_9allocatorIP6entityEELi1ELb1EE5__getB7v160006Ev, symObjAddr: 0x2898, symBinAddr: 0x1000083D4, symSize: 0x14 }
  - { offsetInCU: 0xA8AA, offset: 0x17FF0, size: 0x8, addend: 0x0, symName: __ZNKSt3__16vectorIP6entityNS_9allocatorIS2_EEE9__end_capB7v160006Ev, symObjAddr: 0x2998, symBinAddr: 0x1000083E8, symSize: 0x28 }
  - { offsetInCU: 0xA8CF, offset: 0x18015, size: 0x8, addend: 0x0, symName: __ZNKSt3__117__compressed_pairIPP6entityNS_9allocatorIS2_EEE5firstB7v160006Ev, symObjAddr: 0x29C0, symBinAddr: 0x100008410, symSize: 0x24 }
  - { offsetInCU: 0xA8F4, offset: 0x1803A, size: 0x8, addend: 0x0, symName: __ZNKSt3__122__compressed_pair_elemIPP6entityLi0ELb0EE5__getB7v160006Ev, symObjAddr: 0x29E4, symBinAddr: 0x100008434, symSize: 0x14 }
  - { offsetInCU: 0xA919, offset: 0x1805F, size: 0x8, addend: 0x0, symName: __ZNSt3__114__split_bufferIP6entityRNS_9allocatorIS2_EEEC2EmmS5_, symObjAddr: 0x2A4C, symBinAddr: 0x100008448, symSize: 0xD4 }
  - { offsetInCU: 0xA98C, offset: 0x180D2, size: 0x8, addend: 0x0, symName: __ZNSt3__117__compressed_pairIPP6entityRNS_9allocatorIS2_EEEC1B7v160006IDnS6_EEOT_OT0_, symObjAddr: 0x2B20, symBinAddr: 0x10000851C, symSize: 0x3C }
  - { offsetInCU: 0xA9E3, offset: 0x18129, size: 0x8, addend: 0x0, symName: __ZNSt3__114__split_bufferIP6entityRNS_9allocatorIS2_EEE7__allocB7v160006Ev, symObjAddr: 0x2B9C, symBinAddr: 0x100008598, symSize: 0x28 }
  - { offsetInCU: 0xAA08, offset: 0x1814E, size: 0x8, addend: 0x0, symName: __ZNSt3__114__split_bufferIP6entityRNS_9allocatorIS2_EEE9__end_capB7v160006Ev, symObjAddr: 0x2BC4, symBinAddr: 0x1000085C0, symSize: 0x28 }
  - { offsetInCU: 0xAA2D, offset: 0x18173, size: 0x8, addend: 0x0, symName: __ZNSt3__117__compressed_pairIPP6entityRNS_9allocatorIS2_EEEC2B7v160006IDnS6_EEOT_OT0_, symObjAddr: 0x2BEC, symBinAddr: 0x1000085E8, symSize: 0x48 }
  - { offsetInCU: 0xAA84, offset: 0x181CA, size: 0x8, addend: 0x0, symName: __ZNSt3__122__compressed_pair_elemIRNS_9allocatorIP6entityEELi1ELb0EEC2B7v160006IS5_vEEOT_, symObjAddr: 0x2C34, symBinAddr: 0x100008630, symSize: 0x20 }
  - { offsetInCU: 0xAAC5, offset: 0x1820B, size: 0x8, addend: 0x0, symName: __ZNSt3__19allocatorIP6entityE8allocateB7v160006Em, symObjAddr: 0x2C54, symBinAddr: 0x100008650, symSize: 0x58 }
  - { offsetInCU: 0xAAF8, offset: 0x1823E, size: 0x8, addend: 0x0, symName: __ZNSt3__117__compressed_pairIPP6entityRNS_9allocatorIS2_EEE6secondB7v160006Ev, symObjAddr: 0x2D2C, symBinAddr: 0x1000086A8, symSize: 0x28 }
  - { offsetInCU: 0xAB1D, offset: 0x18263, size: 0x8, addend: 0x0, symName: __ZNSt3__122__compressed_pair_elemIRNS_9allocatorIP6entityEELi1ELb0EE5__getB7v160006Ev, symObjAddr: 0x2D54, symBinAddr: 0x1000086D0, symSize: 0x18 }
  - { offsetInCU: 0xAB42, offset: 0x18288, size: 0x8, addend: 0x0, symName: __ZNSt3__117__compressed_pairIPP6entityRNS_9allocatorIS2_EEE5firstB7v160006Ev, symObjAddr: 0x2D6C, symBinAddr: 0x1000086E8, symSize: 0x24 }
  - { offsetInCU: 0xAB67, offset: 0x182AD, size: 0x8, addend: 0x0, symName: __ZNKSt3__16vectorIP6entityNS_9allocatorIS2_EEE17__annotate_deleteB7v160006Ev, symObjAddr: 0x2D90, symBinAddr: 0x10000870C, symSize: 0xB8 }
  - { offsetInCU: 0xAB8C, offset: 0x182D2, size: 0x8, addend: 0x0, symName: __ZNSt3__116reverse_iteratorIPP6entityEC1B7v160006ES3_, symObjAddr: 0x2EC0, symBinAddr: 0x10000883C, symSize: 0x34 }
  - { offsetInCU: 0xABC3, offset: 0x18309, size: 0x8, addend: 0x0, symName: __ZNKSt3__116reverse_iteratorIPP6entityE4baseB7v160006Ev, symObjAddr: 0x2EF4, symBinAddr: 0x100008870, symSize: 0x18 }
  - { offsetInCU: 0xABE8, offset: 0x1832E, size: 0x8, addend: 0x0, symName: __ZNKSt3__16vectorIP6entityNS_9allocatorIS2_EEE14__annotate_newB7v160006Em, symObjAddr: 0x2F48, symBinAddr: 0x1000088C4, symSize: 0xAC }
  - { offsetInCU: 0xAC1C, offset: 0x18362, size: 0x8, addend: 0x0, symName: __ZNKSt3__16vectorIP6entityNS_9allocatorIS2_EEE31__annotate_contiguous_containerB7v160006EPKvS7_S7_S7_, symObjAddr: 0x3004, symBinAddr: 0x100008980, symSize: 0x20 }
  - { offsetInCU: 0xAC6D, offset: 0x183B3, size: 0x8, addend: 0x0, symName: __ZNKSt3__16vectorIP6entityNS_9allocatorIS2_EEE4dataB7v160006Ev, symObjAddr: 0x3024, symBinAddr: 0x1000089A0, symSize: 0x28 }
  - { offsetInCU: 0xACB5, offset: 0x183FB, size: 0x8, addend: 0x0, symName: __ZNKSt3__111__move_loopINS_17_ClassicAlgPolicyEEclB7v160006INS_16reverse_iteratorIPP6entityEES8_S8_EENS_4pairIT_T1_EESA_T0_SB_, symObjAddr: 0x333C, symBinAddr: 0x100008CB8, symSize: 0xA0 }
  - { offsetInCU: 0xAD24, offset: 0x1846A, size: 0x8, addend: 0x0, symName: __ZNSt3__18_IterOpsINS_17_ClassicAlgPolicyEE11__iter_moveB7v160006IRNS_16reverse_iteratorIPP6entityEEEENS_9enable_ifIXsr12is_referenceIDTdeclsr3stdE7declvalIRT_EEEEE5valueEDTclsr3stdE4movedeclsr3stdE7declvalISC_EEEEE4typeEOSB_, symObjAddr: 0x3570, symBinAddr: 0x100008EEC, symSize: 0x28 }
  - { offsetInCU: 0xAD50, offset: 0x18496, size: 0x8, addend: 0x0, symName: __ZNKSt3__116reverse_iteratorIPP6entityEdeB7v160006Ev, symObjAddr: 0x3598, symBinAddr: 0x100008F14, symSize: 0x28 }
  - { offsetInCU: 0xAD83, offset: 0x184C9, size: 0x8, addend: 0x0, symName: __ZNSt3__116reverse_iteratorIPP6entityEppB7v160006Ev, symObjAddr: 0x35C0, symBinAddr: 0x100008F3C, symSize: 0x20 }
  - { offsetInCU: 0xADA8, offset: 0x184EE, size: 0x8, addend: 0x0, symName: __ZNSt3__18_IterOpsINS_17_ClassicAlgPolicyEE25__validate_iter_referenceB7v160006IRNS_16reverse_iteratorIPP6entityEEEEvv, symObjAddr: 0x35E0, symBinAddr: 0x100008F5C, symSize: 0x4 }
  - { offsetInCU: 0xADC6, offset: 0x1850C, size: 0x8, addend: 0x0, symName: __ZNSt3__118__unwrap_iter_implINS_16reverse_iteratorIPP6entityEELb0EE8__unwrapB7v160006ES5_, symObjAddr: 0x35E4, symBinAddr: 0x100008F60, symSize: 0x24 }
  - { offsetInCU: 0xADEE, offset: 0x18534, size: 0x8, addend: 0x0, symName: __ZNSt3__14pairINS_16reverse_iteratorIPP6entityEES5_EC1B7v160006IS5_S5_LPv0EEEOT_OT0_, symObjAddr: 0x3608, symBinAddr: 0x100008F84, symSize: 0x3C }
  - { offsetInCU: 0xAE4B, offset: 0x18591, size: 0x8, addend: 0x0, symName: __ZNSt3__14pairINS_16reverse_iteratorIPP6entityEES5_EC2B7v160006IS5_S5_LPv0EEEOT_OT0_, symObjAddr: 0x3644, symBinAddr: 0x100008FC0, symSize: 0x34 }
  - { offsetInCU: 0xAEA8, offset: 0x185EE, size: 0x8, addend: 0x0, symName: __ZNSt3__118__unwrap_iter_implINS_16reverse_iteratorIPP6entityEELb0EE8__rewrapB7v160006ES5_S5_, symObjAddr: 0x3678, symBinAddr: 0x100008FF4, symSize: 0x2C }
  - { offsetInCU: 0xAED6, offset: 0x1861C, size: 0x8, addend: 0x0, symName: __ZNSt3__116reverse_iteratorIPP6entityEC2B7v160006ES3_, symObjAddr: 0x36A4, symBinAddr: 0x100009020, symSize: 0x28 }
  - { offsetInCU: 0xAF0D, offset: 0x18653, size: 0x8, addend: 0x0, symName: __ZNSt3__114__split_bufferIP6entityRNS_9allocatorIS2_EEED2Ev, symObjAddr: 0x36CC, symBinAddr: 0x100009048, symSize: 0x8C }
  - { offsetInCU: 0xAF38, offset: 0x1867E, size: 0x8, addend: 0x0, symName: __ZNSt3__114__split_bufferIP6entityRNS_9allocatorIS2_EEE5clearB7v160006Ev, symObjAddr: 0x3758, symBinAddr: 0x1000090D4, symSize: 0x28 }
  - { offsetInCU: 0xAF5D, offset: 0x186A3, size: 0x8, addend: 0x0, symName: __ZNSt3__116allocator_traitsINS_9allocatorIP6entityEEE10deallocateB7v160006ERS4_PS3_m, symObjAddr: 0x3780, symBinAddr: 0x1000090FC, symSize: 0x34 }
  - { offsetInCU: 0xAF9F, offset: 0x186E5, size: 0x8, addend: 0x0, symName: __ZNKSt3__114__split_bufferIP6entityRNS_9allocatorIS2_EEE8capacityB7v160006Ev, symObjAddr: 0x37B4, symBinAddr: 0x100009130, symSize: 0x40 }
  - { offsetInCU: 0xAFC4, offset: 0x1870A, size: 0x8, addend: 0x0, symName: __ZNSt3__114__split_bufferIP6entityRNS_9allocatorIS2_EEE17__destruct_at_endB7v160006EPS2_, symObjAddr: 0x37F4, symBinAddr: 0x100009170, symSize: 0x2C }
  - { offsetInCU: 0xAFF6, offset: 0x1873C, size: 0x8, addend: 0x0, symName: __ZNSt3__114__split_bufferIP6entityRNS_9allocatorIS2_EEE17__destruct_at_endB7v160006EPS2_NS_17integral_constantIbLb0EEE, symObjAddr: 0x3820, symBinAddr: 0x10000919C, symSize: 0x80 }
  - { offsetInCU: 0xB036, offset: 0x1877C, size: 0x8, addend: 0x0, symName: __ZNSt3__116allocator_traitsINS_9allocatorIP6entityEEE7destroyB7v160006IS3_vEEvRS4_PT_, symObjAddr: 0x38A0, symBinAddr: 0x10000921C, symSize: 0x2C }
  - { offsetInCU: 0xB073, offset: 0x187B9, size: 0x8, addend: 0x0, symName: __ZNSt3__19allocatorIP6entityE7destroyB7v160006EPS2_, symObjAddr: 0x38CC, symBinAddr: 0x100009248, symSize: 0x14 }
  - { offsetInCU: 0xB0A6, offset: 0x187EC, size: 0x8, addend: 0x0, symName: __ZNSt3__19allocatorIP6entityE10deallocateB7v160006EPS2_m, symObjAddr: 0x38E0, symBinAddr: 0x10000925C, symSize: 0x40 }
  - { offsetInCU: 0xB0E7, offset: 0x1882D, size: 0x8, addend: 0x0, symName: __ZNKSt3__114__split_bufferIP6entityRNS_9allocatorIS2_EEE9__end_capB7v160006Ev, symObjAddr: 0x399C, symBinAddr: 0x10000929C, symSize: 0x28 }
  - { offsetInCU: 0xB10C, offset: 0x18852, size: 0x8, addend: 0x0, symName: __ZNKSt3__117__compressed_pairIPP6entityRNS_9allocatorIS2_EEE5firstB7v160006Ev, symObjAddr: 0x39C4, symBinAddr: 0x1000092C4, symSize: 0x24 }
  - { offsetInCU: 0xB131, offset: 0x18877, size: 0x8, addend: 0x0, symName: __ZNSt3__16vectorIP6entityNS_9allocatorIS2_EEE11__make_iterB7v160006EPS2_, symObjAddr: 0x39E8, symBinAddr: 0x1000092E8, symSize: 0x34 }
  - { offsetInCU: 0xB165, offset: 0x188AB, size: 0x8, addend: 0x0, symName: __ZNSt3__111__wrap_iterIPP6entityEC1B7v160006EPKvS3_, symObjAddr: 0x3A1C, symBinAddr: 0x10000931C, symSize: 0x3C }
  - { offsetInCU: 0xB1AA, offset: 0x188F0, size: 0x8, addend: 0x0, symName: __ZNSt3__111__wrap_iterIPP6entityEC2B7v160006EPKvS3_, symObjAddr: 0x3A58, symBinAddr: 0x100009358, symSize: 0x24 }
  - { offsetInCU: 0xB1EF, offset: 0x18935, size: 0x8, addend: 0x0, symName: __ZNSt3__111__wrap_iterIPP6entityEpLB7v160006El, symObjAddr: 0x3A7C, symBinAddr: 0x10000937C, symSize: 0x28 }
  - { offsetInCU: 0xB222, offset: 0x18968, size: 0x8, addend: 0x0, symName: __ZNKSt3__16vectorIP6entityNS_9allocatorIS2_EEE6cbeginB7v160006Ev, symObjAddr: 0x3AEC, symBinAddr: 0x1000093EC, symSize: 0x2C }
  - { offsetInCU: 0xB247, offset: 0x1898D, size: 0x8, addend: 0x0, symName: __ZNSt3__16vectorIP6entityNS_9allocatorIS2_EEE17__destruct_at_endB7v160006EPS2_, symObjAddr: 0x3B18, symBinAddr: 0x100009418, symSize: 0x60 }
  - { offsetInCU: 0xB28A, offset: 0x189D0, size: 0x8, addend: 0x0, symName: __ZNSt3__16vectorIP6entityNS_9allocatorIS2_EEE27__invalidate_iterators_pastB7v160006EPS2_, symObjAddr: 0x3BB8, symBinAddr: 0x1000094B8, symSize: 0x14 }
  - { offsetInCU: 0xB2C0, offset: 0x18A06, size: 0x8, addend: 0x0, symName: __ZNKSt3__111__wrap_iterIPKP6entityE4baseB7v160006Ev, symObjAddr: 0x3BCC, symBinAddr: 0x1000094CC, symSize: 0x18 }
  - { offsetInCU: 0xB2E4, offset: 0x18A2A, size: 0x8, addend: 0x0, symName: __ZNKSt3__16vectorIP6entityNS_9allocatorIS2_EEE5beginB7v160006Ev, symObjAddr: 0x3BE4, symBinAddr: 0x1000094E4, symSize: 0x30 }
  - { offsetInCU: 0xB30B, offset: 0x18A51, size: 0x8, addend: 0x0, symName: __ZNKSt3__16vectorIP6entityNS_9allocatorIS2_EEE11__make_iterB7v160006EPKS2_, symObjAddr: 0x3C14, symBinAddr: 0x100009514, symSize: 0x34 }
  - { offsetInCU: 0xB33F, offset: 0x18A85, size: 0x8, addend: 0x0, symName: __ZNSt3__111__wrap_iterIPKP6entityEC1B7v160006EPKvS4_, symObjAddr: 0x3C48, symBinAddr: 0x100009548, symSize: 0x3C }
  - { offsetInCU: 0xB384, offset: 0x18ACA, size: 0x8, addend: 0x0, symName: __ZNSt3__111__wrap_iterIPKP6entityEC2B7v160006EPKvS4_, symObjAddr: 0x3C84, symBinAddr: 0x100009584, symSize: 0x24 }
  - { offsetInCU: 0xB3C9, offset: 0x18B0F, size: 0x8, addend: 0x0, symName: __ZNSt3__16vectorIP6entityNS_9allocatorIS2_EEE22__base_destruct_at_endB7v160006EPS2_, symObjAddr: 0x3CA8, symBinAddr: 0x1000095A8, symSize: 0x8C }
  - { offsetInCU: 0xB40C, offset: 0x18B52, size: 0x8, addend: 0x0, symName: __ZNKSt3__16vectorIP6entityNS_9allocatorIS2_EEE17__annotate_shrinkB7v160006Em, symObjAddr: 0x3D34, symBinAddr: 0x100009634, symSize: 0xB4 }
  - { offsetInCU: 0xB463, offset: 0x18BA9, size: 0x8, addend: 0x0, symName: __ZNKSt3__114__move_trivialclB7v160006IP6entityS3_Li0EEENS_4pairIPT_PT0_EES6_S6_S8_, symObjAddr: 0x3F84, symBinAddr: 0x100009884, symSize: 0x48 }
  - { offsetInCU: 0xB4CF, offset: 0x18C15, size: 0x8, addend: 0x0, symName: __ZNSt3__14pairIPP6entityS3_EC1B7v160006IRS3_S3_LPv0EEEOT_OT0_, symObjAddr: 0x414C, symBinAddr: 0x100009A4C, symSize: 0x3C }
  - { offsetInCU: 0xB52C, offset: 0x18C72, size: 0x8, addend: 0x0, symName: __ZNSt3__14pairIPP6entityS3_EC2B7v160006IRS3_S3_LPv0EEEOT_OT0_, symObjAddr: 0x4188, symBinAddr: 0x100009A88, symSize: 0x34 }
  - { offsetInCU: 0xB589, offset: 0x18CCF, size: 0x8, addend: 0x0, symName: __ZNSt3__118__unwrap_iter_implIPP6entityLb1EE8__unwrapB7v160006ES3_, symObjAddr: 0x41BC, symBinAddr: 0x100009ABC, symSize: 0x24 }
  - { offsetInCU: 0xB5AC, offset: 0x18CF2, size: 0x8, addend: 0x0, symName: __ZNSt3__14pairIPP6entityS3_EC1B7v160006IS3_S3_LPv0EEEOT_OT0_, symObjAddr: 0x41E0, symBinAddr: 0x100009AE0, symSize: 0x3C }
  - { offsetInCU: 0xB609, offset: 0x18D4F, size: 0x8, addend: 0x0, symName: __ZNSt3__14pairIPP6entityS3_EC2B7v160006IS3_S3_LPv0EEEOT_OT0_, symObjAddr: 0x421C, symBinAddr: 0x100009B1C, symSize: 0x34 }
  - { offsetInCU: 0xB666, offset: 0x18DAC, size: 0x8, addend: 0x0, symName: __ZNSt3__118__unwrap_iter_implIPP6entityLb1EE8__rewrapB7v160006ES3_S3_, symObjAddr: 0x4250, symBinAddr: 0x100009B50, symSize: 0x50 }
  - { offsetInCU: 0xB697, offset: 0x18DDD, size: 0x8, addend: 0x0, symName: __ZNSt3__111__wrap_iterIPKP6entityEC2B7v160006IPS2_EERKNS0_IT_EEPNS_9enable_ifIXsr14is_convertibleIS8_S4_EE5valueEvE4typeE, symObjAddr: 0x42A0, symBinAddr: 0x100009BA0, symSize: 0x40 }
  - { offsetInCU: 0xB6E2, offset: 0x18E28, size: 0x8, addend: 0x0, symName: __ZNKSt3__111__wrap_iterIPP6entityE4baseB7v160006Ev, symObjAddr: 0x42E0, symBinAddr: 0x100009BE0, symSize: 0x18 }
  - { offsetInCU: 0xB707, offset: 0x18E4D, size: 0x8, addend: 0x0, symName: __ZNSt3__16vectorIiNS_9allocatorIiEEEC2B7v160006Ev, symObjAddr: 0x42F8, symBinAddr: 0x100009BF8, symSize: 0x58 }
  - { offsetInCU: 0xB730, offset: 0x18E76, size: 0x8, addend: 0x0, symName: __ZNSt3__117__compressed_pairIPiNS_9allocatorIiEEEC1B7v160006IDnNS_18__default_init_tagEEEOT_OT0_, symObjAddr: 0x4350, symBinAddr: 0x100009C50, symSize: 0x3C }
  - { offsetInCU: 0xB787, offset: 0x18ECD, size: 0x8, addend: 0x0, symName: __ZNSt3__117__compressed_pairIPiNS_9allocatorIiEEEC2B7v160006IDnNS_18__default_init_tagEEEOT_OT0_, symObjAddr: 0x439C, symBinAddr: 0x100009C9C, symSize: 0x40 }
  - { offsetInCU: 0xB7DE, offset: 0x18F24, size: 0x8, addend: 0x0, symName: __ZNSt3__122__compressed_pair_elemIPiLi0ELb0EEC2B7v160006IDnvEEOT_, symObjAddr: 0x43DC, symBinAddr: 0x100009CDC, symSize: 0x1C }
  - { offsetInCU: 0xB81F, offset: 0x18F65, size: 0x8, addend: 0x0, symName: __ZNSt3__122__compressed_pair_elemINS_9allocatorIiEELi1ELb1EEC2B7v160006ENS_18__default_init_tagE, symObjAddr: 0x43F8, symBinAddr: 0x100009CF8, symSize: 0x2C }
  - { offsetInCU: 0xB853, offset: 0x18F99, size: 0x8, addend: 0x0, symName: __ZNSt3__19allocatorIiEC2B7v160006Ev, symObjAddr: 0x4424, symBinAddr: 0x100009D24, symSize: 0x2C }
  - { offsetInCU: 0xB87C, offset: 0x18FC2, size: 0x8, addend: 0x0, symName: __ZNSt3__116__non_trivial_ifILb1ENS_9allocatorIiEEEC2B7v160006Ev, symObjAddr: 0x4450, symBinAddr: 0x100009D50, symSize: 0x14 }
  - { offsetInCU: 0xB8A5, offset: 0x18FEB, size: 0x8, addend: 0x0, symName: __ZNSt3__16vectorIiNS_9allocatorIiEEED2B7v160006Ev, symObjAddr: 0x4464, symBinAddr: 0x100009D64, symSize: 0x44 }
  - { offsetInCU: 0xB8CE, offset: 0x19014, size: 0x8, addend: 0x0, symName: __ZNSt3__16vectorIiNS_9allocatorIiEEE16__destroy_vectorC1ERS3_, symObjAddr: 0x44A8, symBinAddr: 0x100009DA8, symSize: 0x34 }
  - { offsetInCU: 0xB906, offset: 0x1904C, size: 0x8, addend: 0x0, symName: __ZNSt3__16vectorIiNS_9allocatorIiEEE16__destroy_vectorclB7v160006Ev, symObjAddr: 0x44DC, symBinAddr: 0x100009DDC, symSize: 0x9C }
  - { offsetInCU: 0xB92B, offset: 0x19071, size: 0x8, addend: 0x0, symName: __ZNSt3__16vectorIiNS_9allocatorIiEEE16__destroy_vectorC2ERS3_, symObjAddr: 0x4578, symBinAddr: 0x100009E78, symSize: 0x20 }
  - { offsetInCU: 0xB963, offset: 0x190A9, size: 0x8, addend: 0x0, symName: __ZNKSt3__16vectorIiNS_9allocatorIiEEE17__annotate_deleteB7v160006Ev, symObjAddr: 0x4598, symBinAddr: 0x100009E98, symSize: 0xB8 }
  - { offsetInCU: 0xB988, offset: 0x190CE, size: 0x8, addend: 0x0, symName: __ZNSt3__16vectorIiNS_9allocatorIiEEE7__clearB7v160006Ev, symObjAddr: 0x4660, symBinAddr: 0x100009F60, symSize: 0x28 }
  - { offsetInCU: 0xB9AD, offset: 0x190F3, size: 0x8, addend: 0x0, symName: __ZNSt3__116allocator_traitsINS_9allocatorIiEEE10deallocateB7v160006ERS2_Pim, symObjAddr: 0x4688, symBinAddr: 0x100009F88, symSize: 0x34 }
  - { offsetInCU: 0xB9EF, offset: 0x19135, size: 0x8, addend: 0x0, symName: __ZNSt3__16vectorIiNS_9allocatorIiEEE7__allocB7v160006Ev, symObjAddr: 0x46BC, symBinAddr: 0x100009FBC, symSize: 0x28 }
  - { offsetInCU: 0xBA14, offset: 0x1915A, size: 0x8, addend: 0x0, symName: __ZNKSt3__16vectorIiNS_9allocatorIiEEE8capacityB7v160006Ev, symObjAddr: 0x46E4, symBinAddr: 0x100009FE4, symSize: 0x40 }
  - { offsetInCU: 0xBA39, offset: 0x1917F, size: 0x8, addend: 0x0, symName: __ZNKSt3__16vectorIiNS_9allocatorIiEEE31__annotate_contiguous_containerB7v160006EPKvS5_S5_S5_, symObjAddr: 0x4724, symBinAddr: 0x10000A024, symSize: 0x20 }
  - { offsetInCU: 0xBA8A, offset: 0x191D0, size: 0x8, addend: 0x0, symName: __ZNKSt3__16vectorIiNS_9allocatorIiEEE4dataB7v160006Ev, symObjAddr: 0x4744, symBinAddr: 0x10000A044, symSize: 0x28 }
  - { offsetInCU: 0xBAAF, offset: 0x191F5, size: 0x8, addend: 0x0, symName: __ZNSt3__16vectorIiNS_9allocatorIiEEE22__base_destruct_at_endB7v160006EPi, symObjAddr: 0x4780, symBinAddr: 0x10000A080, symSize: 0x8C }
  - { offsetInCU: 0xBAF2, offset: 0x19238, size: 0x8, addend: 0x0, symName: __ZNSt3__116allocator_traitsINS_9allocatorIiEEE7destroyB7v160006IivEEvRS2_PT_, symObjAddr: 0x480C, symBinAddr: 0x10000A10C, symSize: 0x2C }
  - { offsetInCU: 0xBB2F, offset: 0x19275, size: 0x8, addend: 0x0, symName: __ZNSt3__19allocatorIiE7destroyB7v160006EPi, symObjAddr: 0x4838, symBinAddr: 0x10000A138, symSize: 0x14 }
  - { offsetInCU: 0xBB62, offset: 0x192A8, size: 0x8, addend: 0x0, symName: __ZNSt3__19allocatorIiE10deallocateB7v160006EPim, symObjAddr: 0x484C, symBinAddr: 0x10000A14C, symSize: 0x40 }
  - { offsetInCU: 0xBBA3, offset: 0x192E9, size: 0x8, addend: 0x0, symName: __ZNSt3__117__compressed_pairIPiNS_9allocatorIiEEE6secondB7v160006Ev, symObjAddr: 0x488C, symBinAddr: 0x10000A18C, symSize: 0x24 }
  - { offsetInCU: 0xBBC8, offset: 0x1930E, size: 0x8, addend: 0x0, symName: __ZNSt3__122__compressed_pair_elemINS_9allocatorIiEELi1ELb1EE5__getB7v160006Ev, symObjAddr: 0x48B0, symBinAddr: 0x10000A1B0, symSize: 0x14 }
  - { offsetInCU: 0xBBED, offset: 0x19333, size: 0x8, addend: 0x0, symName: __ZNKSt3__16vectorIiNS_9allocatorIiEEE9__end_capB7v160006Ev, symObjAddr: 0x48C4, symBinAddr: 0x10000A1C4, symSize: 0x28 }
  - { offsetInCU: 0xBC12, offset: 0x19358, size: 0x8, addend: 0x0, symName: __ZNKSt3__117__compressed_pairIPiNS_9allocatorIiEEE5firstB7v160006Ev, symObjAddr: 0x48EC, symBinAddr: 0x10000A1EC, symSize: 0x24 }
  - { offsetInCU: 0xBC37, offset: 0x1937D, size: 0x8, addend: 0x0, symName: __ZNKSt3__122__compressed_pair_elemIPiLi0ELb0EE5__getB7v160006Ev, symObjAddr: 0x4910, symBinAddr: 0x10000A210, symSize: 0x14 }
  - { offsetInCU: 0xBC5C, offset: 0x193A2, size: 0x8, addend: 0x0, symName: __ZNSt3__16vectorIiNS_9allocatorIiEEE9__end_capB7v160006Ev, symObjAddr: 0x4924, symBinAddr: 0x10000A224, symSize: 0x28 }
  - { offsetInCU: 0xBC81, offset: 0x193C7, size: 0x8, addend: 0x0, symName: __ZNSt3__16vectorIiNS_9allocatorIiEEE22__construct_one_at_endB7v160006IJRKiEEEvDpOT_, symObjAddr: 0x494C, symBinAddr: 0x10000A24C, symSize: 0x90 }
  - { offsetInCU: 0xBCCE, offset: 0x19414, size: 0x8, addend: 0x0, symName: __ZNSt3__16vectorIiNS_9allocatorIiEEE21__push_back_slow_pathIRKiEEvOT_, symObjAddr: 0x49DC, symBinAddr: 0x10000A2DC, symSize: 0xD8 }
  - { offsetInCU: 0xBD2B, offset: 0x19471, size: 0x8, addend: 0x0, symName: __ZNSt3__117__compressed_pairIPiNS_9allocatorIiEEE5firstB7v160006Ev, symObjAddr: 0x4AB4, symBinAddr: 0x10000A3B4, symSize: 0x24 }
  - { offsetInCU: 0xBD50, offset: 0x19496, size: 0x8, addend: 0x0, symName: __ZNSt3__122__compressed_pair_elemIPiLi0ELb0EE5__getB7v160006Ev, symObjAddr: 0x4AD8, symBinAddr: 0x10000A3D8, symSize: 0x14 }
  - { offsetInCU: 0xBD8E, offset: 0x194D4, size: 0x8, addend: 0x0, symName: __ZNSt3__16vectorIiNS_9allocatorIiEEE21_ConstructTransactionC1B7v160006ERS3_m, symObjAddr: 0x4AEC, symBinAddr: 0x10000A3EC, symSize: 0x3C }
  - { offsetInCU: 0xBDD5, offset: 0x1951B, size: 0x8, addend: 0x0, symName: __ZNSt3__116allocator_traitsINS_9allocatorIiEEE9constructB7v160006IiJRKiEvEEvRS2_PT_DpOT0_, symObjAddr: 0x4B28, symBinAddr: 0x10000A428, symSize: 0x34 }
  - { offsetInCU: 0xBE2C, offset: 0x19572, size: 0x8, addend: 0x0, symName: __ZNSt3__16vectorIiNS_9allocatorIiEEE21_ConstructTransactionD1B7v160006Ev, symObjAddr: 0x4B5C, symBinAddr: 0x10000A45C, symSize: 0x2C }
  - { offsetInCU: 0xBE55, offset: 0x1959B, size: 0x8, addend: 0x0, symName: __ZNSt3__16vectorIiNS_9allocatorIiEEE21_ConstructTransactionC2B7v160006ERS3_m, symObjAddr: 0x4B88, symBinAddr: 0x10000A488, symSize: 0x44 }
  - { offsetInCU: 0xBE9C, offset: 0x195E2, size: 0x8, addend: 0x0, symName: __ZNSt3__19allocatorIiE9constructB7v160006IiJRKiEEEvPT_DpOT0_, symObjAddr: 0x4BCC, symBinAddr: 0x10000A4CC, symSize: 0x28 }
  - { offsetInCU: 0xBEF1, offset: 0x19637, size: 0x8, addend: 0x0, symName: __ZNSt3__16vectorIiNS_9allocatorIiEEE21_ConstructTransactionD2B7v160006Ev, symObjAddr: 0x4BF4, symBinAddr: 0x10000A4F4, symSize: 0x20 }
  - { offsetInCU: 0xBF19, offset: 0x1965F, size: 0x8, addend: 0x0, symName: __ZNKSt3__16vectorIiNS_9allocatorIiEEE11__recommendB7v160006Em, symObjAddr: 0x4C14, symBinAddr: 0x10000A514, symSize: 0xB4 }
  - { offsetInCU: 0xBF6D, offset: 0x196B3, size: 0x8, addend: 0x0, symName: __ZNSt3__114__split_bufferIiRNS_9allocatorIiEEEC1EmmS3_, symObjAddr: 0x4CC8, symBinAddr: 0x10000A5C8, symSize: 0x44 }
  - { offsetInCU: 0xBFC2, offset: 0x19708, size: 0x8, addend: 0x0, symName: __ZNSt3__114__split_bufferIiRNS_9allocatorIiEEED1Ev, symObjAddr: 0x4E24, symBinAddr: 0x10000A724, symSize: 0x2C }
  - { offsetInCU: 0xBFEC, offset: 0x19732, size: 0x8, addend: 0x0, symName: __ZNKSt3__16vectorIiNS_9allocatorIiEEE8max_sizeEv, symObjAddr: 0x4E50, symBinAddr: 0x10000A750, symSize: 0x60 }
  - { offsetInCU: 0xC013, offset: 0x19759, size: 0x8, addend: 0x0, symName: __ZNKSt3__16vectorIiNS_9allocatorIiEEE20__throw_length_errorB7v160006Ev, symObjAddr: 0x4EB0, symBinAddr: 0x10000A7B0, symSize: 0x1C }
  - { offsetInCU: 0xC042, offset: 0x19788, size: 0x8, addend: 0x0, symName: __ZNSt3__116allocator_traitsINS_9allocatorIiEEE8max_sizeB7v160006IS2_vEEmRKS2_, symObjAddr: 0x4ECC, symBinAddr: 0x10000A7CC, symSize: 0x24 }
  - { offsetInCU: 0xC070, offset: 0x197B6, size: 0x8, addend: 0x0, symName: __ZNKSt3__16vectorIiNS_9allocatorIiEEE7__allocB7v160006Ev, symObjAddr: 0x4EF0, symBinAddr: 0x10000A7F0, symSize: 0x28 }
  - { offsetInCU: 0xC095, offset: 0x197DB, size: 0x8, addend: 0x0, symName: __ZNKSt3__19allocatorIiE8max_sizeB7v160006Ev, symObjAddr: 0x4F18, symBinAddr: 0x10000A818, symSize: 0x14 }
  - { offsetInCU: 0xC0BA, offset: 0x19800, size: 0x8, addend: 0x0, symName: __ZNKSt3__117__compressed_pairIPiNS_9allocatorIiEEE6secondB7v160006Ev, symObjAddr: 0x4F2C, symBinAddr: 0x10000A82C, symSize: 0x24 }
  - { offsetInCU: 0xC0DF, offset: 0x19825, size: 0x8, addend: 0x0, symName: __ZNKSt3__122__compressed_pair_elemINS_9allocatorIiEELi1ELb1EE5__getB7v160006Ev, symObjAddr: 0x4F50, symBinAddr: 0x10000A850, symSize: 0x14 }
  - { offsetInCU: 0xC104, offset: 0x1984A, size: 0x8, addend: 0x0, symName: __ZNSt3__114__split_bufferIiRNS_9allocatorIiEEEC2EmmS3_, symObjAddr: 0x4F64, symBinAddr: 0x10000A864, symSize: 0xD4 }
  - { offsetInCU: 0xC177, offset: 0x198BD, size: 0x8, addend: 0x0, symName: __ZNSt3__117__compressed_pairIPiRNS_9allocatorIiEEEC1B7v160006IDnS4_EEOT_OT0_, symObjAddr: 0x5038, symBinAddr: 0x10000A938, symSize: 0x3C }
  - { offsetInCU: 0xC1CE, offset: 0x19914, size: 0x8, addend: 0x0, symName: __ZNSt3__114__split_bufferIiRNS_9allocatorIiEEE7__allocB7v160006Ev, symObjAddr: 0x50B4, symBinAddr: 0x10000A9B4, symSize: 0x28 }
  - { offsetInCU: 0xC1F3, offset: 0x19939, size: 0x8, addend: 0x0, symName: __ZNSt3__114__split_bufferIiRNS_9allocatorIiEEE9__end_capB7v160006Ev, symObjAddr: 0x50DC, symBinAddr: 0x10000A9DC, symSize: 0x28 }
  - { offsetInCU: 0xC218, offset: 0x1995E, size: 0x8, addend: 0x0, symName: __ZNSt3__117__compressed_pairIPiRNS_9allocatorIiEEEC2B7v160006IDnS4_EEOT_OT0_, symObjAddr: 0x5104, symBinAddr: 0x10000AA04, symSize: 0x48 }
  - { offsetInCU: 0xC26F, offset: 0x199B5, size: 0x8, addend: 0x0, symName: __ZNSt3__122__compressed_pair_elemIRNS_9allocatorIiEELi1ELb0EEC2B7v160006IS3_vEEOT_, symObjAddr: 0x514C, symBinAddr: 0x10000AA4C, symSize: 0x20 }
  - { offsetInCU: 0xC2B0, offset: 0x199F6, size: 0x8, addend: 0x0, symName: __ZNSt3__19allocatorIiE8allocateB7v160006Em, symObjAddr: 0x516C, symBinAddr: 0x10000AA6C, symSize: 0x58 }
  - { offsetInCU: 0xC2E3, offset: 0x19A29, size: 0x8, addend: 0x0, symName: __ZNSt3__117__compressed_pairIPiRNS_9allocatorIiEEE6secondB7v160006Ev, symObjAddr: 0x51C4, symBinAddr: 0x10000AAC4, symSize: 0x28 }
  - { offsetInCU: 0xC308, offset: 0x19A4E, size: 0x8, addend: 0x0, symName: __ZNSt3__122__compressed_pair_elemIRNS_9allocatorIiEELi1ELb0EE5__getB7v160006Ev, symObjAddr: 0x51EC, symBinAddr: 0x10000AAEC, symSize: 0x18 }
  - { offsetInCU: 0xC32D, offset: 0x19A73, size: 0x8, addend: 0x0, symName: __ZNSt3__117__compressed_pairIPiRNS_9allocatorIiEEE5firstB7v160006Ev, symObjAddr: 0x5204, symBinAddr: 0x10000AB04, symSize: 0x24 }
  - { offsetInCU: 0xC352, offset: 0x19A98, size: 0x8, addend: 0x0, symName: __ZNSt3__116reverse_iteratorIPiEC1B7v160006ES1_, symObjAddr: 0x52A0, symBinAddr: 0x10000ABA0, symSize: 0x34 }
  - { offsetInCU: 0xC389, offset: 0x19ACF, size: 0x8, addend: 0x0, symName: __ZNKSt3__116reverse_iteratorIPiE4baseB7v160006Ev, symObjAddr: 0x52D4, symBinAddr: 0x10000ABD4, symSize: 0x18 }
  - { offsetInCU: 0xC3AE, offset: 0x19AF4, size: 0x8, addend: 0x0, symName: __ZNKSt3__16vectorIiNS_9allocatorIiEEE14__annotate_newB7v160006Em, symObjAddr: 0x5328, symBinAddr: 0x10000AC28, symSize: 0xAC }
  - { offsetInCU: 0xC3FB, offset: 0x19B41, size: 0x8, addend: 0x0, symName: __ZNKSt3__111__move_loopINS_17_ClassicAlgPolicyEEclB7v160006INS_16reverse_iteratorIPiEES6_S6_EENS_4pairIT_T1_EES8_T0_S9_, symObjAddr: 0x56D4, symBinAddr: 0x10000AFD4, symSize: 0xA0 }
  - { offsetInCU: 0xC46A, offset: 0x19BB0, size: 0x8, addend: 0x0, symName: __ZNSt3__18_IterOpsINS_17_ClassicAlgPolicyEE11__iter_moveB7v160006IRNS_16reverse_iteratorIPiEEEENS_9enable_ifIXsr12is_referenceIDTdeclsr3stdE7declvalIRT_EEEEE5valueEDTclsr3stdE4movedeclsr3stdE7declvalISA_EEEEE4typeEOS9_, symObjAddr: 0x5908, symBinAddr: 0x10000B208, symSize: 0x28 }
  - { offsetInCU: 0xC496, offset: 0x19BDC, size: 0x8, addend: 0x0, symName: __ZNKSt3__116reverse_iteratorIPiEdeB7v160006Ev, symObjAddr: 0x5930, symBinAddr: 0x10000B230, symSize: 0x28 }
  - { offsetInCU: 0xC4C9, offset: 0x19C0F, size: 0x8, addend: 0x0, symName: __ZNSt3__116reverse_iteratorIPiEppB7v160006Ev, symObjAddr: 0x5958, symBinAddr: 0x10000B258, symSize: 0x20 }
  - { offsetInCU: 0xC4EE, offset: 0x19C34, size: 0x8, addend: 0x0, symName: __ZNSt3__18_IterOpsINS_17_ClassicAlgPolicyEE25__validate_iter_referenceB7v160006IRNS_16reverse_iteratorIPiEEEEvv, symObjAddr: 0x5978, symBinAddr: 0x10000B278, symSize: 0x4 }
  - { offsetInCU: 0xC50C, offset: 0x19C52, size: 0x8, addend: 0x0, symName: __ZNSt3__118__unwrap_iter_implINS_16reverse_iteratorIPiEELb0EE8__unwrapB7v160006ES3_, symObjAddr: 0x597C, symBinAddr: 0x10000B27C, symSize: 0x24 }
  - { offsetInCU: 0xC534, offset: 0x19C7A, size: 0x8, addend: 0x0, symName: __ZNSt3__14pairINS_16reverse_iteratorIPiEES3_EC1B7v160006IS3_S3_LPv0EEEOT_OT0_, symObjAddr: 0x59A0, symBinAddr: 0x10000B2A0, symSize: 0x3C }
  - { offsetInCU: 0xC591, offset: 0x19CD7, size: 0x8, addend: 0x0, symName: __ZNSt3__14pairINS_16reverse_iteratorIPiEES3_EC2B7v160006IS3_S3_LPv0EEEOT_OT0_, symObjAddr: 0x59DC, symBinAddr: 0x10000B2DC, symSize: 0x34 }
  - { offsetInCU: 0xC5EE, offset: 0x19D34, size: 0x8, addend: 0x0, symName: __ZNSt3__118__unwrap_iter_implINS_16reverse_iteratorIPiEELb0EE8__rewrapB7v160006ES3_S3_, symObjAddr: 0x5A10, symBinAddr: 0x10000B310, symSize: 0x2C }
  - { offsetInCU: 0xC61C, offset: 0x19D62, size: 0x8, addend: 0x0, symName: __ZNSt3__116reverse_iteratorIPiEC2B7v160006ES1_, symObjAddr: 0x5A3C, symBinAddr: 0x10000B33C, symSize: 0x28 }
  - { offsetInCU: 0xC653, offset: 0x19D99, size: 0x8, addend: 0x0, symName: __ZNSt3__114__split_bufferIiRNS_9allocatorIiEEED2Ev, symObjAddr: 0x5A64, symBinAddr: 0x10000B364, symSize: 0x8C }
  - { offsetInCU: 0xC67E, offset: 0x19DC4, size: 0x8, addend: 0x0, symName: __ZNSt3__114__split_bufferIiRNS_9allocatorIiEEE5clearB7v160006Ev, symObjAddr: 0x5AF0, symBinAddr: 0x10000B3F0, symSize: 0x28 }
  - { offsetInCU: 0xC6A3, offset: 0x19DE9, size: 0x8, addend: 0x0, symName: __ZNKSt3__114__split_bufferIiRNS_9allocatorIiEEE8capacityB7v160006Ev, symObjAddr: 0x5B18, symBinAddr: 0x10000B418, symSize: 0x40 }
  - { offsetInCU: 0xC6C8, offset: 0x19E0E, size: 0x8, addend: 0x0, symName: __ZNSt3__114__split_bufferIiRNS_9allocatorIiEEE17__destruct_at_endB7v160006EPi, symObjAddr: 0x5B58, symBinAddr: 0x10000B458, symSize: 0x2C }
  - { offsetInCU: 0xC6FA, offset: 0x19E40, size: 0x8, addend: 0x0, symName: __ZNSt3__114__split_bufferIiRNS_9allocatorIiEEE17__destruct_at_endB7v160006EPiNS_17integral_constantIbLb0EEE, symObjAddr: 0x5B84, symBinAddr: 0x10000B484, symSize: 0x80 }
  - { offsetInCU: 0xC73A, offset: 0x19E80, size: 0x8, addend: 0x0, symName: __ZNKSt3__114__split_bufferIiRNS_9allocatorIiEEE9__end_capB7v160006Ev, symObjAddr: 0x5C04, symBinAddr: 0x10000B504, symSize: 0x28 }
  - { offsetInCU: 0xC75F, offset: 0x19EA5, size: 0x8, addend: 0x0, symName: __ZNKSt3__117__compressed_pairIPiRNS_9allocatorIiEEE5firstB7v160006Ev, symObjAddr: 0x5C2C, symBinAddr: 0x10000B52C, symSize: 0x24 }
  - { offsetInCU: 0xC7A3, offset: 0x19EE9, size: 0x8, addend: 0x0, symName: __ZNSt3__116_UnwrapAlgPolicyIRPFbP6entityS2_EE10__get_compB7v160006ES5_, symObjAddr: 0x68C8, symBinAddr: 0x10000B6D0, symSize: 0x14 }
  - { offsetInCU: 0xC7C6, offset: 0x19F0C, size: 0x8, addend: 0x0, symName: __ZNSt3__18_IterOpsINS_17_ClassicAlgPolicyEE9iter_swapB7v160006IRPP6entityS7_EEvOT_OT0_, symObjAddr: 0x7040, symBinAddr: 0x10000BE48, symSize: 0x34 }
  - { offsetInCU: 0xC809, offset: 0x19F4F, size: 0x8, addend: 0x0, symName: __ZNSt3__18_IterOpsINS_17_ClassicAlgPolicyEE11__iter_moveB7v160006IRPP6entityEENS_9enable_ifIXsr12is_referenceIDTdeclsr3stdE7declvalIRT_EEEEE5valueEDTclsr3stdE4movedeclsr3stdE7declvalISA_EEEEE4typeEOS9_, symObjAddr: 0x79B8, symBinAddr: 0x10000C7C0, symSize: 0x28 }
  - { offsetInCU: 0xC835, offset: 0x19F7B, size: 0x8, addend: 0x0, symName: __ZNSt3__18_IterOpsINS_17_ClassicAlgPolicyEE25__validate_iter_referenceB7v160006IRPP6entityEEvv, symObjAddr: 0x79E0, symBinAddr: 0x10000C7E8, symSize: 0x4 }
  - { offsetInCU: 0xC853, offset: 0x19F99, size: 0x8, addend: 0x0, symName: __ZNSt3__18_IterOpsINS_17_ClassicAlgPolicyEE4nextB7v160006IPP6entityEET_S7_S7_, symObjAddr: 0x79E4, symBinAddr: 0x10000C7EC, symSize: 0x18 }
  - { offsetInCU: 0xC88A, offset: 0x19FD0, size: 0x8, addend: 0x0, symName: __ZNSt3__118__unwrap_iter_implINS_11__wrap_iterIPP6entityEELb1EE8__unwrapB7v160006ES5_, symObjAddr: 0x832C, symBinAddr: 0x10000D134, symSize: 0x28 }
  - { offsetInCU: 0xC8B2, offset: 0x19FF8, size: 0x8, addend: 0x0, symName: __ZNSt3__119__to_address_helperINS_11__wrap_iterIPP6entityEEvE6__callB7v160006ERKS5_, symObjAddr: 0x8378, symBinAddr: 0x10000D180, symSize: 0x30 }
  - { offsetInCU: 0xC8D5, offset: 0x1A01B, size: 0x8, addend: 0x0, symName: __ZNSt3__114pointer_traitsINS_11__wrap_iterIPP6entityEEE10to_addressB7v160006ES5_, symObjAddr: 0x83A8, symBinAddr: 0x10000D1B0, symSize: 0x2C }
  - { offsetInCU: 0x2951, offset: 0x1CA85, size: 0x8, addend: 0x0, symName: __Z4Distffff, symObjAddr: 0x0, symBinAddr: 0x10000D1DC, symSize: 0x64 }
  - { offsetInCU: 0x29A7, offset: 0x1CADB, size: 0x8, addend: 0x0, symName: __Z11draw_circleP12SDL_Rendererffi, symObjAddr: 0x7C, symBinAddr: 0x10000D240, symSize: 0x134 }
  - { offsetInCU: 0x2A8E, offset: 0x1CBC2, size: 0x8, addend: 0x0, symName: __ZN6entityC2Ev, symObjAddr: 0x1B0, symBinAddr: 0x10000D374, symSize: 0x14 }
  - { offsetInCU: 0x2AB9, offset: 0x1CBED, size: 0x8, addend: 0x0, symName: __ZN6entityC1Ev, symObjAddr: 0x1C4, symBinAddr: 0x10000D388, symSize: 0x2C }
  - { offsetInCU: 0x2AE4, offset: 0x1CC18, size: 0x8, addend: 0x0, symName: __ZN6entityC2Edddiiii, symObjAddr: 0x1F0, symBinAddr: 0x10000D3B4, symSize: 0x1B0 }
  - { offsetInCU: 0x2B71, offset: 0x1CCA5, size: 0x8, addend: 0x0, symName: __ZN6entityC1Edddiiii, symObjAddr: 0x3A0, symBinAddr: 0x10000D564, symSize: 0x64 }
  - { offsetInCU: 0x2BFE, offset: 0x1CD32, size: 0x8, addend: 0x0, symName: __ZN6entityC2Edddiiiiii, symObjAddr: 0x404, symBinAddr: 0x10000D5C8, symSize: 0xB4 }
  - { offsetInCU: 0x2CA7, offset: 0x1CDDB, size: 0x8, addend: 0x0, symName: __ZN6entityC1Edddiiiiii, symObjAddr: 0x4B8, symBinAddr: 0x10000D67C, symSize: 0x74 }
  - { offsetInCU: 0x2D50, offset: 0x1CE84, size: 0x8, addend: 0x0, symName: __ZN6entity9updatePosEd, symObjAddr: 0x52C, symBinAddr: 0x10000D6F0, symSize: 0xA4 }
  - { offsetInCU: 0x2D85, offset: 0x1CEB9, size: 0x8, addend: 0x0, symName: __ZN6entity11checkBoundsEP10SDL_Window, symObjAddr: 0x5D0, symBinAddr: 0x10000D794, symSize: 0xFC }
  - { offsetInCU: 0x2DD6, offset: 0x1CF0A, size: 0x8, addend: 0x0, symName: __ZN6entity10bounceWallEP10SDL_Window, symObjAddr: 0x6CC, symBinAddr: 0x10000D890, symSize: 0x108 }
  - { offsetInCU: 0x2E27, offset: 0x1CF5B, size: 0x8, addend: 0x0, symName: __ZN6entity11isCollidingES_, symObjAddr: 0x7D4, symBinAddr: 0x10000D998, symSize: 0xAC }
  - { offsetInCU: 0x2E5D, offset: 0x1CF91, size: 0x8, addend: 0x0, symName: __ZN6entity18calculateCollisionERS_, symObjAddr: 0x880, symBinAddr: 0x10000DA44, symSize: 0x188 }
  - { offsetInCU: 0x2EF6, offset: 0x1D02A, size: 0x8, addend: 0x0, symName: __ZN6entity16calculateGravityEfRS_, symObjAddr: 0xA08, symBinAddr: 0x10000DBCC, symSize: 0x534 }
  - { offsetInCU: 0x2F9B, offset: 0x1D0CF, size: 0x8, addend: 0x0, symName: __Z8isfiniteB7v160006IdLi0EEbT_, symObjAddr: 0xF3C, symBinAddr: 0x10000E100, symSize: 0x34 }
  - { offsetInCU: 0x2FD9, offset: 0x1D10D, size: 0x8, addend: 0x0, symName: __Z8isfiniteB7v160006IfLi0EEbT_, symObjAddr: 0xFD0, symBinAddr: 0x10000E134, symSize: 0x34 }
  - { offsetInCU: 0x3017, offset: 0x1D14B, size: 0x8, addend: 0x0, symName: __ZN6entity22incrementAccelerationsEff, symObjAddr: 0x1004, symBinAddr: 0x10000E168, symSize: 0x44 }
  - { offsetInCU: 0x305A, offset: 0x1D18E, size: 0x8, addend: 0x0, symName: __ZN6entity5resetEv, symObjAddr: 0x1048, symBinAddr: 0x10000E1AC, symSize: 0x20 }
  - { offsetInCU: 0x3081, offset: 0x1D1B5, size: 0x8, addend: 0x0, symName: __ZN6entity6renderEP12SDL_Renderer, symObjAddr: 0x1068, symBinAddr: 0x10000E1CC, symSize: 0x44 }
  - { offsetInCU: 0x30B6, offset: 0x1D1EA, size: 0x8, addend: 0x0, symName: __ZN6entity17calculateVelocityEv, symObjAddr: 0x10AC, symBinAddr: 0x10000E210, symSize: 0x30 }
  - { offsetInCU: 0x30DD, offset: 0x1D211, size: 0x8, addend: 0x0, symName: __ZN6entity14calculateAngleEv, symObjAddr: 0x10DC, symBinAddr: 0x10000E240, symSize: 0x48 }
  - { offsetInCU: 0x25C6, offset: 0x1F803, size: 0x8, addend: 0x0, symName: __ZNSt3__118__debug_db_erase_cB7v160006INS_6vectorIP6entityNS_9allocatorIS3_EEEEEEvPT_, symObjAddr: 0xAE4, symBinAddr: 0x10000EC24, symSize: 0x10 }
  - { offsetInCU: 0x4556, offset: 0x21793, size: 0x8, addend: 0x0, symName: __Z8Distanceffff, symObjAddr: 0x0, symBinAddr: 0x10000E288, symSize: 0x64 }
  - { offsetInCU: 0x45AC, offset: 0x217E9, size: 0x8, addend: 0x0, symName: _main, symObjAddr: 0x7C, symBinAddr: 0x10000E2EC, symSize: 0x768 }
  - { offsetInCU: 0x47FE, offset: 0x21A3B, size: 0x8, addend: 0x0, symName: __Z5floorB7v160006f, symObjAddr: 0x850, symBinAddr: 0x10000EA54, symSize: 0x18 }
  - { offsetInCU: 0x4B60, offset: 0x21D9D, size: 0x8, addend: 0x0, symName: __ZN11allEntitiesD1Ev, symObjAddr: 0x868, symBinAddr: 0x10000EA6C, symSize: 0x2C }
  - { offsetInCU: 0x4B8B, offset: 0x21DC8, size: 0x8, addend: 0x0, symName: __ZN11allEntitiesD2Ev, symObjAddr: 0x894, symBinAddr: 0x10000EA98, symSize: 0x2C }
  - { offsetInCU: 0x4BB6, offset: 0x21DF3, size: 0x8, addend: 0x0, symName: __ZNSt3__16vectorIP6entityNS_9allocatorIS2_EEED1B7v160006Ev, symObjAddr: 0x8C0, symBinAddr: 0x10000EAC4, symSize: 0x2C }
  - { offsetInCU: 0x4BDF, offset: 0x21E1C, size: 0x8, addend: 0x0, symName: __ZNSt3__16vectorIP6entityNS_9allocatorIS2_EEED2B7v160006Ev, symObjAddr: 0x8EC, symBinAddr: 0x10000EAF0, symSize: 0x44 }
  - { offsetInCU: 0x4C08, offset: 0x21E45, size: 0x8, addend: 0x0, symName: __ZNSt3__16vectorIP6entityNS_9allocatorIS2_EEE16__destroy_vectorC1ERS5_, symObjAddr: 0x930, symBinAddr: 0x10000EB34, symSize: 0x34 }
  - { offsetInCU: 0x4C40, offset: 0x21E7D, size: 0x8, addend: 0x0, symName: __ZNSt3__16vectorIP6entityNS_9allocatorIS2_EEE16__destroy_vectorclB7v160006Ev, symObjAddr: 0x970, symBinAddr: 0x10000EB68, symSize: 0x9C }
  - { offsetInCU: 0x4C65, offset: 0x21EA2, size: 0x8, addend: 0x0, symName: __ZNSt3__16vectorIP6entityNS_9allocatorIS2_EEE16__destroy_vectorC2ERS5_, symObjAddr: 0xA0C, symBinAddr: 0x10000EC04, symSize: 0x20 }
  - { offsetInCU: 0x4C9D, offset: 0x21EDA, size: 0x8, addend: 0x0, symName: __ZNSt3__16vectorIP6entityNS_9allocatorIS2_EEE7__clearB7v160006Ev, symObjAddr: 0xAF4, symBinAddr: 0x10000EC34, symSize: 0x28 }
  - { offsetInCU: 0x26, offset: 0x22EB0, size: 0x8, addend: 0x0, symName: __ZN7textBoxC2Ev, symObjAddr: 0x0, symBinAddr: 0x10000EC5C, symSize: 0x60 }
  - { offsetInCU: 0x2AC3, offset: 0x2594D, size: 0x8, addend: 0x0, symName: __ZN7textBoxC2Ev, symObjAddr: 0x0, symBinAddr: 0x10000EC5C, symSize: 0x60 }
  - { offsetInCU: 0x2AEE, offset: 0x25978, size: 0x8, addend: 0x0, symName: __ZN7textBoxC1Ev, symObjAddr: 0x60, symBinAddr: 0x10000ECBC, symSize: 0x2C }
  - { offsetInCU: 0x2B19, offset: 0x259A3, size: 0x8, addend: 0x0, symName: __ZN7textBoxC2EPcS0_i9SDL_Coloriiii, symObjAddr: 0x8C, symBinAddr: 0x10000ECE8, symSize: 0xA8 }
  - { offsetInCU: 0x2BB4, offset: 0x25A3E, size: 0x8, addend: 0x0, symName: __ZN7textBoxC1EPcS0_i9SDL_Coloriiii, symObjAddr: 0x134, symBinAddr: 0x10000ED90, symSize: 0x88 }
  - { offsetInCU: 0x2C4F, offset: 0x25AD9, size: 0x8, addend: 0x0, symName: __ZN7textBox6renderEP12SDL_RendererP10SDL_Window, symObjAddr: 0x1BC, symBinAddr: 0x10000EE18, symSize: 0x8C }
...
